.eh_frame$_Z10mglLineartIdET_PKS0_lllddd
.eh_frame$_Z10mglLineartISt7complexIdEET_PKS2_lllddd
.eh_frame$_Z11mglSpline1tIdET_PKS0_ldPS0_
.eh_frame$_Z11mglSpline1tISt7complexIdEET_PKS2_ldPS2_
.eh_frame$_Z11mglSpline3tIdET_PKS0_llldddPS0_S3_S3_
.eh_frame$_Z11mglSpline3tISt7complexIdEET_PKS2_llldddPS2_S5_S5_
.eh_frame$_Z12mgl_spline3tIdET_PKS0_ldRS0_
.eh_frame$_Z12mgl_spline3tISt7complexIdEET_PKS2_ldRS2_
.eh_frame$_Z12mglSpline1stIdET_PKS0_ld
.eh_frame$_Z12mglSpline1stISt7complexIdEET_PKS2_ld
.eh_frame$_Z12mglSpline3stIdET_PKS0_lllddd
.eh_frame$_Z12mglSpline3stISt7complexIdEET_PKS2_lllddd
.eh_frame$_Z13mgl_spline3stIdET_PKS0_ld
.eh_frame$_Z13mgl_spline3stISt7complexIdEET_PKS2_ld
.eh_frame$_Z16mgl_gspline_initIdEvlPKdPKT_PS2_
.eh_frame$_Z16mgl_gspline_initISt7complexIdEEvlPKdPKT_PS4_
.eh_frame$_ZN10_mgl_sliceD1Ev
.eh_frame$_ZN10mglDrawDataSERKS_
.eh_frame$_ZN10mglDrawDatC1ERKS_
.eh_frame$_ZN10mglDrawDatD1Ev
.eh_frame$_ZN10mglFnStackD1Ev
.eh_frame$_ZN10mglSegment3setEddddlllPK8mglDataAS2_S2_
.eh_frame$_ZN10mglTextureC1ERKS_
.eh_frame$_ZN10PRCBlend0116serializeSurfaceER12PRCbitStream
.eh_frame$_ZN10PRCBlend01D0Ev
.eh_frame$_ZN10PRCBlend01D1Ev
.eh_frame$_ZN10PRCSurfaceD0Ev
.eh_frame$_ZN10PRCSurfaceD1Ev
.eh_frame$_ZN10QByteArrayD1Ev
.eh_frame$_ZN11mglCanvasGL10SetQualityEi
.eh_frame$_ZN11mglCanvasGL7SetSizeEiib
.eh_frame$_ZN11PRCBrepData13serializeBodyER12PRCbitStream
.eh_frame$_ZN11PRCBrepDataC1Ev
.eh_frame$_ZN11PRCBrepDataD0Ev
.eh_frame$_ZN11PRCBrepDataD1Ev
.eh_frame$_ZN11PRCCylinder16serializeSurfaceER12PRCbitStream
.eh_frame$_ZN11PRCCylinderD0Ev
.eh_frame$_ZN11PRCCylinderD1Ev
.eh_frame$_ZN11PRCMaterialD0Ev
.eh_frame$_ZN11PRCMaterialD1Ev
.eh_frame$_ZN11PRCPointSet27serializeRepresentationItemER12PRCbitStream
.eh_frame$_ZN11PRCPointSetC1ESs
.eh_frame$_ZN11PRCPointSetD0Ev
.eh_frame$_ZN11PRCPointSetD1Ev
.eh_frame$_ZN11PRCPolyLine14serializeCurveER12PRCbitStream
.eh_frame$_ZN11PRCPolyLineD0Ev
.eh_frame$_ZN11PRCPolyLineD1Ev
.eh_frame$_ZN11PRCPolyWire27serializeRepresentationItemER12PRCbitStream
.eh_frame$_ZN11PRCPolyWireC1ESs
.eh_frame$_ZN11PRCPolyWireD0Ev
.eh_frame$_ZN11PRCPolyWireD1Ev
.eh_frame$_ZN11PRCtessquadC1ERKS_
.eh_frame$_ZN11PRCTopoItemD0Ev
.eh_frame$_ZN11PRCTopoItemD1Ev
.eh_frame$_ZN11PRCWireEdge17serializeTopoItemER12PRCbitStream
.eh_frame$_ZN11PRCWireEdgeD0Ev
.eh_frame$_ZN11PRCWireEdgeD1Ev
.eh_frame$_ZN12mglCanvasWnd9NextFrameEv
.eh_frame$_ZN12mglCanvasWnd9PrevFrameEv
.eh_frame$_ZN12ObjMaterials8addColorERK8mglColor
.eh_frame$_ZN12PRCAttributeD1Ev
.eh_frame$_ZN12PRCBrepModel27serializeRepresentationItemER12PRCbitStream
.eh_frame$_ZN12PRCBrepModelC1ESs
.eh_frame$_ZN12PRCBrepModelD0Ev
.eh_frame$_ZN12PRCBrepModelD1Ev
.eh_frame$_ZN12prctriangles13addColourInfoERK6mglPnt
.eh_frame$_ZN12prctriangles8addPointEfff
.eh_frame$_ZN13PRC3DWireTess21serializeBaseTessDataER12PRCbitStream
.eh_frame$_ZN13PRC3DWireTessD0Ev
.eh_frame$_ZN13PRC3DWireTessD1Ev
.eh_frame$_ZN13PRCNURBSCurve14serializeCurveER12PRCbitStream
.eh_frame$_ZN13PRCNURBSCurveD0Ev
.eh_frame$_ZN13PRCNURBSCurveD1Ev
.eh_frame$_ZN14_mgl_vec_sliceC1Ev
.eh_frame$_ZN14_mgl_vec_sliceD1Ev
.eh_frame$_ZN14ContentPRCBaseC2EjSs
.eh_frame$_ZN14ContentPRCBaseD1Ev
.eh_frame$_ZN14ContentPRCBaseD2Ev
.eh_frame$_ZN15PRCBaseGeometryD2Ev
.eh_frame$_ZN15PRCBaseTopologyD2Ev
.eh_frame$_ZN15PRCNURBSSurface16serializeSurfaceER12PRCbitStream
.eh_frame$_ZN15PRCNURBSSurfaceD0Ev
.eh_frame$_ZN15PRCNURBSSurfaceD1Ev
.eh_frame$_ZN16PRCFileStructureD1Ev
.eh_frame$_ZN16PRCPolyBrepModel27serializeRepresentationItemER12PRCbitStream
.eh_frame$_ZN16PRCPolyBrepModelC1ESs
.eh_frame$_ZN16PRCPolyBrepModelD0Ev
.eh_frame$_ZN16PRCPolyBrepModelD1Ev
.eh_frame$_ZN17PRCPartDefinitionD1Ev
.eh_frame$_ZN17PRCSingleWireBody13serializeBodyER12PRCbitStream
.eh_frame$_ZN17PRCSingleWireBodyD0Ev
.eh_frame$_ZN17PRCSingleWireBodyD1Ev
.eh_frame$_ZN18PRCMaterialGeneric17serializeMaterialER12PRCbitStream
.eh_frame$_ZN18PRCMaterialGenericD0Ev
.eh_frame$_ZN18PRCMaterialGenericD1Ev
.eh_frame$_ZN18PRCSingleAttributeD1Ev
.eh_frame$_ZN19PRCCoordinateSystem27serializeRepresentationItemER12PRCbitStream
.eh_frame$_ZN19PRCCoordinateSystemC1ESs
.eh_frame$_ZN19PRCCoordinateSystemD0Ev
.eh_frame$_ZN19PRCCoordinateSystemD1Ev
.eh_frame$_ZN19PRCTransformation3dD0Ev
.eh_frame$_ZN19PRCTransformation3dD1Ev
.eh_frame$_ZN20PRCProductOccurrenceD1Ev
.eh_frame$_ZN21PRCCompressedBrepData13serializeBodyER12PRCbitStream
.eh_frame$_ZN21PRCCompressedBrepData15serialToleranceEv
.eh_frame$_ZN21PRCCompressedBrepDataC1Ev
.eh_frame$_ZN21PRCCompressedBrepDataD0Ev
.eh_frame$_ZN21PRCCompressedBrepDataD1Ev
.eh_frame$_ZN21PRCRepresentationItemC2EjSs
.eh_frame$_ZN21PRCRepresentationItemD0Ev
.eh_frame$_ZN21PRCRepresentationItemD1Ev
.eh_frame$_ZN21PRCTextureApplication17serializeMaterialER12PRCbitStream
.eh_frame$_ZN21PRCTextureApplicationD0Ev
.eh_frame$_ZN21PRCTextureApplicationD1Ev
.eh_frame$_ZN26PRCGeneralTransformation3dD0Ev
.eh_frame$_ZN26PRCGeneralTransformation3dD1Ev
.eh_frame$_ZN28PRCCartesianTransformation3dD0Ev
.eh_frame$_ZN28PRCCartesianTransformation3dD1Ev
.eh_frame$_ZN6mglArgD1Ev
.eh_frame$_ZN6PRCSet27serializeRepresentationItemER12PRCbitStream
.eh_frame$_ZN6PRCSetD0Ev
.eh_frame$_ZN6PRCSetD1Ev
.eh_frame$_ZN7mglAxis5ClearEv
.eh_frame$_ZN7mglAxis8AddLabelEPKwd
.eh_frame$_ZN7mglAxisC1ERKS_
.eh_frame$_ZN7mglAxisD1Ev
.eh_frame$_ZN7mglBase10SetQualityEi
.eh_frame$_ZN7mglBase11AttachLightEb
.eh_frame$_ZN7mglBase13SetFontSizePTEdi
.eh_frame$_ZN7mglBase5AlphaEb
.eh_frame$_ZN7mglBase5LightEb
.eh_frame$_ZN7mglBase6AddPntE8mglPointdS0_di
.eh_frame$_ZN7mglData4MoveEPS_
.eh_frame$_ZN7mglData5set_vEdlll
.eh_frame$_ZN7mglDataC1EbPS_
.eh_frame$_ZN7mglDataC1EiPKd
.eh_frame$_ZN7mglDataC1Elll
.eh_frame$_ZN7mglDataD0Ev
.eh_frame$_ZN7mglDataD1Ev
.eh_frame$_ZN7mglTextD1Ev
.eh_frame$_ZN7ObjXYZs15addVertexCoordsEddd
.eh_frame$_ZN7PRCBody15serialToleranceEv
.eh_frame$_ZN7PRCBody17serializeTopoItemER12PRCbitStream
.eh_frame$_ZN7PRCBodyD0Ev
.eh_frame$_ZN7PRCBodyD1Ev
.eh_frame$_ZN7PRCCone16serializeSurfaceER12PRCbitStream
.eh_frame$_ZN7PRCConeD0Ev
.eh_frame$_ZN7PRCConeD1Ev
.eh_frame$_ZN7PRCFace17serializeTopoItemER12PRCbitStream
.eh_frame$_ZN7PRCFaceD0Ev
.eh_frame$_ZN7PRCFaceD1Ev
.eh_frame$_ZN7PRCTessD0Ev
.eh_frame$_ZN7PRCTessD1Ev
.eh_frame$_ZN7PRCWire27serializeRepresentationItemER12PRCbitStream
.eh_frame$_ZN7PRCWireD0Ev
.eh_frame$_ZN7PRCWireD1Ev
.eh_frame$_ZN7QStringD1Ev
.eh_frame$_ZN8Fl_Group8as_groupEv
.eh_frame$_ZN8mglBlockC1ERKS_
.eh_frame$_ZN8mglDataA5set_vEdlll
.eh_frame$_ZN8mglDataAD0Ev
.eh_frame$_ZN8mglDataAD1Ev
.eh_frame$_ZN8mglDataAD2Ev
.eh_frame$_ZN8mglDataC4MoveEPS_
.eh_frame$_ZN8mglDataC5set_vEdlll
.eh_frame$_ZN8mglDataCC1EbPS_
.eh_frame$_ZN8mglDataCC1Elll
.eh_frame$_ZN8mglDataCD0Ev
.eh_frame$_ZN8mglDataCD1Ev
.eh_frame$_ZN8mglDataRD0Ev
.eh_frame$_ZN8mglDataRD1Ev
.eh_frame$_ZN8mglDataTD0Ev
.eh_frame$_ZN8mglDataTD1Ev
.eh_frame$_ZN8mglDataVD0Ev
.eh_frame$_ZN8mglDataVD1Ev
.eh_frame$_ZN8mglDataWD0Ev
.eh_frame$_ZN8mglDataWD1Ev
.eh_frame$_ZN8mglGlyphaSERKS_
.eh_frame$_ZN8mglGraph13SetFontSizePTEdi
.eh_frame$_ZN8mglGraphD0Ev
.eh_frame$_ZN8mglGraphD1Ev
.eh_frame$_ZN8mglGroupC1ERKS_
.eh_frame$_ZN8mglGroupD1Ev
.eh_frame$_ZN8mglParseD0Ev
.eh_frame$_ZN8mglParseD1Ev
.eh_frame$_ZN8mglRKdatC1ERKS_
.eh_frame$_ZN8mglRKdatD1Ev
.eh_frame$_ZN8mglStackI12mglActivePosED1Ev
.eh_frame$_ZN8mglStackI6mglPntE5clearEv
.eh_frame$_ZN8mglStackI6mglPntE7reserveEj
.eh_frame$_ZN8mglStackI6mglPntED1Ev
.eh_frame$_ZN8mglStackI7mglPrimE5clearEv
.eh_frame$_ZN8mglStackI7mglPrimE7reserveEj
.eh_frame$_ZN8mglStackI7mglPrimED1Ev
.eh_frame$_ZN8ObjGroup13addColourInfoERK6mglPnt
.eh_frame$_ZN8ObjGroup8addLinesEjjPA3_Kd
.eh_frame$_ZN8oPRCFileC1ERKSsdj
.eh_frame$_ZN8oPRCFileD1Ev
.eh_frame$_ZN8PRCCurveD0Ev
.eh_frame$_ZN8PRCCurveD1Ev
.eh_frame$_ZN8PRCgroupC1ERKS_
.eh_frame$_ZN8PRCgroupD1Ev
.eh_frame$_ZN8PRCRuled16serializeSurfaceER12PRCbitStream
.eh_frame$_ZN8PRCRuledD0Ev
.eh_frame$_ZN8PRCRuledD1Ev
.eh_frame$_ZN8PRCShell17serializeTopoItemER12PRCbitStream
.eh_frame$_ZN8PRCShellC1Ev
.eh_frame$_ZN8PRCShellD0Ev
.eh_frame$_ZN8PRCShellD1Ev
.eh_frame$_ZN8PRCStyleC1ESs
.eh_frame$_ZN8PRCTorus16serializeSurfaceER12PRCbitStream
.eh_frame$_ZN8PRCTorusD0Ev
.eh_frame$_ZN8PRCTorusD1Ev
.eh_frame$_ZN9Fl_PixmapC1EPKPKc
.eh_frame$_ZN9Fl_Widget12as_gl_windowEv
.eh_frame$_ZN9Fl_Widget8as_groupEv
.eh_frame$_ZN9Fl_Widget9as_windowEv
.eh_frame$_ZN9Fl_Window9as_windowEv
.eh_frame$_ZN9PRC3DTess21serializeBaseTessDataER12PRCbitStream
.eh_frame$_ZN9PRC3DTessC1Ev
.eh_frame$_ZN9PRC3DTessD0Ev
.eh_frame$_ZN9PRC3DTessD1Ev
.eh_frame$_ZN9PRCCircle14serializeCurveER12PRCbitStream
.eh_frame$_ZN9PRCCircleD0Ev
.eh_frame$_ZN9PRCCircleD1Ev
.eh_frame$_ZN9PRCConnex17serializeTopoItemER12PRCbitStream
.eh_frame$_ZN9PRCConnexC1Ev
.eh_frame$_ZN9PRCConnexD0Ev
.eh_frame$_ZN9PRCConnexD1Ev
.eh_frame$_ZN9PRCSphere16serializeSurfaceER12PRCbitStream
.eh_frame$_ZN9PRCSphereD0Ev
.eh_frame$_ZN9PRCSphereD1Ev
.eh_frame$_ZNK10RGBAColourneERKS_
.eh_frame$_ZNK11PRCmaterialltERKS_
.eh_frame$_ZNK26PRCGeneralTransformation3d25serializeTransformation3dER12PRCbitStream
.eh_frame$_ZNK28PRCCartesianTransformation3d25serializeTransformation3dER12PRCbitStream
.eh_frame$_ZNK7mglData1vElll
.eh_frame$_ZNK7mglData3dvxElll
.eh_frame$_ZNK7mglData3dvyElll
.eh_frame$_ZNK7mglData3dvzElll
.eh_frame$_ZNK7mglData4vthrEl
.eh_frame$_ZNK7mglData5GetNxEv
.eh_frame$_ZNK7mglData5GetNyEv
.eh_frame$_ZNK7mglData5GetNzEv
.eh_frame$_ZNK7mglData5valueEddd
.eh_frame$_ZNK7mglData6valueDEdddPdS0_S0_
.eh_frame$_ZNK7QString7sectionE5QCharii6QFlagsINS_11SectionFlagEE
.eh_frame$_ZNK7QStringeqEPKc
.eh_frame$_ZNK8mglDataA2vcElll
.eh_frame$_ZNK8mglDataA3GetEl
.eh_frame$_ZNK8mglDataA4SaveEPKcl
.eh_frame$_ZNK8mglDataA4vthrEl
.eh_frame$_ZNK8mglDataA5GetNNEv
.eh_frame$_ZNK8mglDataA5vcthrEl
.eh_frame$_ZNK8mglDataA7MaximalEv
.eh_frame$_ZNK8mglDataA7MinimalEv
.eh_frame$_ZNK8mglDataA7SaveHDFEPKcS1_b
.eh_frame$_ZNK8mglDataA7Spline1Eddd
.eh_frame$_ZNK8mglDataA7Spline1ER8mglPointddd
.eh_frame$_ZNK8mglDataC1vElll
.eh_frame$_ZNK8mglDataC2vcElll
.eh_frame$_ZNK8mglDataC3dvxElll
.eh_frame$_ZNK8mglDataC3dvyElll
.eh_frame$_ZNK8mglDataC3dvzElll
.eh_frame$_ZNK8mglDataC3GetEl
.eh_frame$_ZNK8mglDataC4SaveEPKcl
.eh_frame$_ZNK8mglDataC4vthrEl
.eh_frame$_ZNK8mglDataC5GetNxEv
.eh_frame$_ZNK8mglDataC5GetNyEv
.eh_frame$_ZNK8mglDataC5GetNzEv
.eh_frame$_ZNK8mglDataC5valueEddd
.eh_frame$_ZNK8mglDataC5vcthrEl
.eh_frame$_ZNK8mglDataC6valueDEdddPdS0_S0_
.eh_frame$_ZNK8mglDataC7SaveHDFEPKcS1_b
.eh_frame$_ZNK8mglDataR1vElll
.eh_frame$_ZNK8mglDataR3dvxElll
.eh_frame$_ZNK8mglDataR3dvyElll
.eh_frame$_ZNK8mglDataR3dvzElll
.eh_frame$_ZNK8mglDataR4vthrEl
.eh_frame$_ZNK8mglDataR5GetNxEv
.eh_frame$_ZNK8mglDataR5GetNyEv
.eh_frame$_ZNK8mglDataR5GetNzEv
.eh_frame$_ZNK8mglDataR5valueEddd
.eh_frame$_ZNK8mglDataR6valueDEdddPdS0_S0_
.eh_frame$_ZNK8mglDataR7MaximalEv
.eh_frame$_ZNK8mglDataR7MinimalEv
.eh_frame$_ZNK8mglDataT1vElll
.eh_frame$_ZNK8mglDataT3dvxElll
.eh_frame$_ZNK8mglDataT3dvyElll
.eh_frame$_ZNK8mglDataT3dvzElll
.eh_frame$_ZNK8mglDataT4vthrEl
.eh_frame$_ZNK8mglDataT5GetNxEv
.eh_frame$_ZNK8mglDataT5GetNyEv
.eh_frame$_ZNK8mglDataT5GetNzEv
.eh_frame$_ZNK8mglDataT5valueEddd
.eh_frame$_ZNK8mglDataT6valueDEdddPdS0_S0_
.eh_frame$_ZNK8mglDataT7MaximalEv
.eh_frame$_ZNK8mglDataT7MinimalEv
.eh_frame$_ZNK8mglDataV1vElll
.eh_frame$_ZNK8mglDataV3dvxElll
.eh_frame$_ZNK8mglDataV3dvyElll
.eh_frame$_ZNK8mglDataV3dvzElll
.eh_frame$_ZNK8mglDataV4vthrEl
.eh_frame$_ZNK8mglDataV5GetNxEv
.eh_frame$_ZNK8mglDataV5GetNyEv
.eh_frame$_ZNK8mglDataV5GetNzEv
.eh_frame$_ZNK8mglDataV5valueEddd
.eh_frame$_ZNK8mglDataV6valueDEdddPdS0_S0_
.eh_frame$_ZNK8mglDataV7MaximalEv
.eh_frame$_ZNK8mglDataV7MinimalEv
.eh_frame$_ZNK8mglDataW1vElll
.eh_frame$_ZNK8mglDataW3dvxElll
.eh_frame$_ZNK8mglDataW3dvyElll
.eh_frame$_ZNK8mglDataW3dvzElll
.eh_frame$_ZNK8mglDataW4vthrEl
.eh_frame$_ZNK8mglDataW5GetNxEv
.eh_frame$_ZNK8mglDataW5GetNyEv
.eh_frame$_ZNK8mglDataW5GetNzEv
.eh_frame$_ZNK8mglDataW5valueEddd
.eh_frame$_ZNK8mglDataW6valueDEdddPdS0_S0_
.eh_frame$_ZNK8mglDataW7MaximalEv
.eh_frame$_ZNK8mglDataW7MinimalEv
.eh_frame$_ZNK9mglCanvas8GetWidthEv
.eh_frame$_ZNK9mglCanvas9GetHeightEv
.eh_frame$_ZNSs6assignIN9__gnu_cxx17__normal_iteratorIPwSbIwSt11char_traitsIwESaIwEEEEEERSsT_S9_
.eh_frame$_ZNSt10_List_baseI11PRCtesslineSaIS0_EE8_M_clearEv
.eh_frame$_ZNSt10_List_baseI12PRCAttributeSaIS0_EE8_M_clearEv
.eh_frame$_ZNSt11_Deque_baseI11PRCRgbColorSaIS0_EED2Ev
.eh_frame$_ZNSt11_Deque_baseI18PRCSingleAttributeSaIS0_EE17_M_initialize_mapEj
.eh_frame$_ZNSt11_Deque_baseI18PRCSingleAttributeSaIS0_EED2Ev
.eh_frame$_ZNSt11_Deque_baseI7ObjLineSaIS0_EE17_M_initialize_mapEj
.eh_frame$_ZNSt11_Deque_baseI7ObjLineSaIS0_EED2Ev
.eh_frame$_ZNSt11_Deque_baseI8PRCgroupSaIS0_EE17_M_initialize_mapEj
.eh_frame$_ZNSt11_Deque_baseI8PRCgroupSaIS0_EED2Ev
.eh_frame$_ZNSt11_Deque_baseIjSaIjEE17_M_initialize_mapEj
.eh_frame$_ZNSt11_Deque_baseIjSaIjEED2Ev
.eh_frame$_ZNSt11_Deque_baseIP10PRCPictureSaIS1_EED2Ev
.eh_frame$_ZNSt11_Deque_baseIP11PRCGraphicsSaIS1_EED2Ev
.eh_frame$_ZNSt11_Deque_baseIP11PRCMaterialSaIS1_EED2Ev
.eh_frame$_ZNSt11_Deque_baseIP14PRCTopoContextSaIS1_EED2Ev
.eh_frame$_ZNSt11_Deque_baseIP17PRCPartDefinitionSaIS1_EED2Ev
.eh_frame$_ZNSt11_Deque_baseIP19PRCCoordinateSystemSaIS1_EED2Ev
.eh_frame$_ZNSt11_Deque_baseIP19PRCUncompressedFileSaIS1_EE17_M_initialize_mapEj
.eh_frame$_ZNSt11_Deque_baseIP19PRCUncompressedFileSaIS1_EED2Ev
.eh_frame$_ZNSt11_Deque_baseIP20PRCProductOccurrenceSaIS1_EED2Ev
.eh_frame$_ZNSt11_Deque_baseIP20PRCTextureDefinitionSaIS1_EED2Ev
.eh_frame$_ZNSt11_Deque_baseIP21PRCRepresentationItemSaIS1_EE17_M_initialize_mapEj
.eh_frame$_ZNSt11_Deque_baseIP21PRCRepresentationItemSaIS1_EED2Ev
.eh_frame$_ZNSt11_Deque_baseIP7PRCBodySaIS1_EED2Ev
.eh_frame$_ZNSt11_Deque_baseIP7PRCFaceSaIS1_EED2Ev
.eh_frame$_ZNSt11_Deque_baseIP7PRCTessSaIS1_EED2Ev
.eh_frame$_ZNSt11_Deque_baseIP8PRCShellSaIS1_EED2Ev
.eh_frame$_ZNSt11_Deque_baseIP8PRCStyleSaIS1_EED2Ev
.eh_frame$_ZNSt11_Deque_baseIP9PRCConnexSaIS1_EED2Ev
.eh_frame$_ZNSt12_Destroy_auxILb0EE9__destroyIP10mglSegmentEEvT_S4_
.eh_frame$_ZNSt12_Destroy_auxILb0EE9__destroyIP10mglTextureEEvT_S4_
.eh_frame$_ZNSt15basic_stringbufIcSt11char_traitsIcESaIcEED1Ev
.eh_frame$_ZNSt20__uninitialized_copyILb0EE13__uninit_copyIN9__gnu_cxx17__normal_iteratorIPK8mglGlyphSt6vectorIS4_SaIS4_EEEEPS4_EET0_T_SD_SC_
.eh_frame$_ZNSt20__uninitialized_copyILb0EE13__uninit_copyIP10mglDrawDatS3_EET0_T_S5_S4_
.eh_frame$_ZNSt20__uninitialized_copyILb0EE13__uninit_copyIP10mglFnStackS3_EET0_T_S5_S4_
.eh_frame$_ZNSt20__uninitialized_copyILb0EE13__uninit_copyIP10mglSegmentS3_EET0_T_S5_S4_
.eh_frame$_ZNSt20__uninitialized_copyILb0EE13__uninit_copyIP10mglTextureS3_EET0_T_S5_S4_
.eh_frame$_ZNSt20__uninitialized_copyILb0EE13__uninit_copyIP7mglTextS3_EET0_T_S5_S4_
.eh_frame$_ZNSt20__uninitialized_copyILb0EE13__uninit_copyIP8mglGlyphS3_EET0_T_S5_S4_
.eh_frame$_ZNSt20__uninitialized_copyILb0EE13__uninit_copyIP8mglGroupS3_EET0_T_S5_S4_
.eh_frame$_ZNSt20__uninitialized_copyILb0EE13__uninit_copyIP8mglRKdatS3_EET0_T_S5_S4_
.eh_frame$_ZNSt22__uninitialized_fill_nILb0EE15__uninit_fill_nIP7mglTextjS2_EEvT_T0_RKT1_
.eh_frame$_ZNSt22__uninitialized_fill_nILb0EE15__uninit_fill_nIP8mglGlyphjS2_EEvT_T0_RKT1_
.eh_frame$_ZNSt3mapIdSt4listI11PRCtesslineSaIS1_EESt4lessIdESaISt4pairIKdS3_EEEixERS7_
.eh_frame$_ZNSt3mapIjSt5dequeIjSaIjEESt4lessIjESaISt4pairIKjS2_EEEixERS6_
.eh_frame$_ZNSt4listI8mglPointSaIS0_EEaSERKS2_
.eh_frame$_ZNSt5dequeI11ObjTriangleSaIS0_EE16_M_push_back_auxERKS0_
.eh_frame$_ZNSt5dequeI11ObjTriangleSaIS0_EE9push_backERKS0_
.eh_frame$_ZNSt5dequeI11PRCRgbColorSaIS0_EE16_M_push_back_auxERKS0_
.eh_frame$_ZNSt5dequeI18PRCSingleAttributeSaIS0_EE16_M_push_back_auxERKS0_
.eh_frame$_ZNSt5dequeI18PRCSingleAttributeSaIS0_EE19_M_destroy_data_auxESt15_Deque_iteratorIS0_RS0_PS0_ES6_
.eh_frame$_ZNSt5dequeI7ObjLineSaIS0_EE16_M_push_back_auxERKS0_
.eh_frame$_ZNSt5dequeI8PRCgroupSaIS0_EE16_M_push_back_auxERKS0_
.eh_frame$_ZNSt5dequeI8PRCgroupSaIS0_EED1Ev
.eh_frame$_ZNSt5dequeIP10PRCPictureSaIS1_EE16_M_push_back_auxERKS1_
.eh_frame$_ZNSt5dequeIP11PRCGraphicsSaIS1_EE17_M_reallocate_mapEjb
.eh_frame$_ZNSt5dequeIP11PRCMaterialSaIS1_EE17_M_reallocate_mapEjb
.eh_frame$_ZNSt5dequeIP14PRCTopoContextSaIS1_EE16_M_push_back_auxERKS1_
.eh_frame$_ZNSt5dequeIP17PRCCompressedFaceSaIS1_EE9push_backERKS1_
.eh_frame$_ZNSt5dequeIP19PRCCoordinateSystemSaIS1_EE16_M_push_back_auxERKS1_
.eh_frame$_ZNSt5dequeIP19PRCUncompressedFileSaIS1_EE16_M_push_back_auxERKS1_
.eh_frame$_ZNSt5dequeIP20PRCTextureDefinitionSaIS1_EE16_M_push_back_auxERKS1_
.eh_frame$_ZNSt5dequeIP7PRCBodySaIS1_EE17_M_reallocate_mapEjb
.eh_frame$_ZNSt5dequeIP7PRCTessSaIS1_EE16_M_push_back_auxERKS1_
.eh_frame$_ZNSt5dequeIP8PRCStyleSaIS1_EE16_M_push_back_auxERKS1_
.eh_frame$_ZNSt6vectorI10mglDrawDatSaIS0_EE13_M_insert_auxEN9__gnu_cxx17__normal_iteratorIPS0_S2_EERKS0_
.eh_frame$_ZNSt6vectorI10mglDrawDatSaIS0_EE5eraseEN9__gnu_cxx17__normal_iteratorIPS0_S2_EE
.eh_frame$_ZNSt6vectorI10mglFnStackSaIS0_EE13_M_insert_auxEN9__gnu_cxx17__normal_iteratorIPS0_S2_EERKS0_
.eh_frame$_ZNSt6vectorI10mglFnStackSaIS0_EED1Ev
.eh_frame$_ZNSt6vectorI10mglSegmentSaIS0_EE13_M_insert_auxEN9__gnu_cxx17__normal_iteratorIPS0_S2_EERKS0_
.eh_frame$_ZNSt6vectorI10mglSegmentSaIS0_EE9push_backERKS0_
.eh_frame$_ZNSt6vectorI10mglSegmentSaIS0_EED1Ev
.eh_frame$_ZNSt6vectorI10mglTextureSaIS0_EE13_M_insert_auxEN9__gnu_cxx17__normal_iteratorIPS0_S2_EERKS0_
.eh_frame$_ZNSt6vectorI10mglTextureSaIS0_EE7reserveEj
.eh_frame$_ZNSt6vectorI10mglTextureSaIS0_EEaSERKS2_
.eh_frame$_ZNSt6vectorI10mglTextureSaIS0_EED1Ev
.eh_frame$_ZNSt6vectorI11PRCcompfaceSaIS0_EE13_M_insert_auxEN9__gnu_cxx17__normal_iteratorIPS0_S2_EERKS0_
.eh_frame$_ZNSt6vectorI11PRCtessquadSaIS0_EE13_M_insert_auxEN9__gnu_cxx17__normal_iteratorIPS0_S2_EERKS0_
.eh_frame$_ZNSt6vectorI11prctriangleSaIS0_EE13_M_insert_auxEN9__gnu_cxx17__normal_iteratorIPS0_S2_EERKS0_
.eh_frame$_ZNSt6vectorI11prctriangleSaIS0_EE9push_backERKS0_
.eh_frame$_ZNSt6vectorI11PRCVector3dSaIS0_EE13_M_insert_auxEN9__gnu_cxx17__normal_iteratorIPS0_S2_EERKS0_
.eh_frame$_ZNSt6vectorI11PRCVector3dSaIS0_EE14_M_fill_insertEN9__gnu_cxx17__normal_iteratorIPS0_S2_EEjRKS0_
.eh_frame$_ZNSt6vectorI11PRCVector3dSaIS0_EE7reserveEj
.eh_frame$_ZNSt6vectorI11PRCVector3dSaIS0_EEaSERKS2_
.eh_frame$_ZNSt6vectorI13mglGlyphDescrSaIS0_EE13_M_insert_auxEN9__gnu_cxx17__normal_iteratorIPS0_S2_EERKS0_
.eh_frame$_ZNSt6vectorI13mglGlyphDescrSaIS0_EE14_M_fill_insertEN9__gnu_cxx17__normal_iteratorIPS0_S2_EEjRKS0_
.eh_frame$_ZNSt6vectorI13mglGlyphDescrSaIS0_EE15_M_range_insertIN9__gnu_cxx17__normal_iteratorIPS0_S2_EEEEvS7_T_S8_St20forward_iterator_tag
.eh_frame$_ZNSt6vectorI13mglGlyphDescrSaIS0_EE7reserveEj
.eh_frame$_ZNSt6vectorI13mglGlyphDescrSaIS0_EEaSERKS2_
.eh_frame$_ZNSt6vectorI15PRCControlPointSaIS0_EE14_M_fill_insertEN9__gnu_cxx17__normal_iteratorIPS0_S2_EEjRKS0_
.eh_frame$_ZNSt6vectorI16PRCtessrectangleSaIS0_EE13_M_insert_auxEN9__gnu_cxx17__normal_iteratorIPS0_S2_EERKS0_
.eh_frame$_ZNSt6vectorI19PRCFontKeysSameFontSaIS0_EED1Ev
.eh_frame$_ZNSt6vectorI3ShxSaIS0_EE13_M_insert_auxEN9__gnu_cxx17__normal_iteratorIPS0_S2_EERKS0_
.eh_frame$_ZNSt6vectorI3ShxSaIS0_EE5eraseEN9__gnu_cxx17__normal_iteratorIPS0_S2_EE
.eh_frame$_ZNSt6vectorI3ShxSaIS0_EE6insertEN9__gnu_cxx17__normal_iteratorIPS0_S2_EERKS0_
.eh_frame$_ZNSt6vectorI5DupexSaIS0_EE13_M_insert_auxEN9__gnu_cxx17__normal_iteratorIPS0_S2_EERKS0_
.eh_frame$_ZNSt6vectorI5TriadSaIS0_EE13_M_insert_auxEN9__gnu_cxx17__normal_iteratorIPS0_S2_EERKS0_
.eh_frame$_ZNSt6vectorI7mglFuncSaIS0_EE13_M_insert_auxEN9__gnu_cxx17__normal_iteratorIPS0_S2_EERKS0_
.eh_frame$_ZNSt6vectorI7mglFuncSaIS0_EE5clearEv
.eh_frame$_ZNSt6vectorI7mglFuncSaIS0_EED1Ev
.eh_frame$_ZNSt6vectorI7mglTextSaIS0_EE13_M_insert_auxEN9__gnu_cxx17__normal_iteratorIPS0_S2_EERKS0_
.eh_frame$_ZNSt6vectorI7mglTextSaIS0_EE14_M_fill_insertEN9__gnu_cxx17__normal_iteratorIPS0_S2_EEjRKS0_
.eh_frame$_ZNSt6vectorI7mglTextSaIS0_EEaSERKS2_
.eh_frame$_ZNSt6vectorI7mglTextSaIS0_EED1Ev
.eh_frame$_ZNSt6vectorI7PRCfaceSaIS0_EE13_M_insert_auxEN9__gnu_cxx17__normal_iteratorIPS0_S2_EERKS0_
.eh_frame$_ZNSt6vectorI7PRCwireSaIS0_EE13_M_insert_auxEN9__gnu_cxx17__normal_iteratorIPS0_S2_EERKS0_
.eh_frame$_ZNSt6vectorI8mglBlockSaIS0_EE13_M_insert_auxEN9__gnu_cxx17__normal_iteratorIPS0_S2_EERKS0_
.eh_frame$_ZNSt6vectorI8mglBlockSaIS0_EE14_M_fill_insertEN9__gnu_cxx17__normal_iteratorIPS0_S2_EEjRKS0_
.eh_frame$_ZNSt6vectorI8mglBlockSaIS0_EEaSERKS2_
.eh_frame$_ZNSt6vectorI8mglGlyphSaIS0_EE13_M_insert_auxEN9__gnu_cxx17__normal_iteratorIPS0_S2_EERKS0_
.eh_frame$_ZNSt6vectorI8mglGlyphSaIS0_EE14_M_fill_insertEN9__gnu_cxx17__normal_iteratorIPS0_S2_EEjRKS0_
.eh_frame$_ZNSt6vectorI8mglGlyphSaIS0_EE7reserveEj
.eh_frame$_ZNSt6vectorI8mglGlyphSaIS0_EEaSERKS2_
.eh_frame$_ZNSt6vectorI8mglGlyphSaIS0_EED1Ev
.eh_frame$_ZNSt6vectorI8mglGroupSaIS0_EE13_M_insert_auxEN9__gnu_cxx17__normal_iteratorIPS0_S2_EERKS0_
.eh_frame$_ZNSt6vectorI8mglGroupSaIS0_EED1Ev
.eh_frame$_ZNSt6vectorI8mglPointSaIS0_EE13_M_insert_auxEN9__gnu_cxx17__normal_iteratorIPS0_S2_EERKS0_
.eh_frame$_ZNSt6vectorI8mglPointSaIS0_EE7reserveEj
.eh_frame$_ZNSt6vectorI8mglPointSaIS0_EE9push_backERKS0_
.eh_frame$_ZNSt6vectorI8mglPointSaIS0_EEaSERKS2_
.eh_frame$_ZNSt6vectorI8mglRKdatSaIS0_EE13_M_insert_auxEN9__gnu_cxx17__normal_iteratorIPS0_S2_EERKS0_
.eh_frame$_ZNSt6vectorI9mglMatrixSaIS0_EE13_M_insert_auxEN9__gnu_cxx17__normal_iteratorIPS0_S2_EERKS0_
.eh_frame$_ZNSt6vectorIdSaIdEE13_M_insert_auxEN9__gnu_cxx17__normal_iteratorIPdS1_EERKd
.eh_frame$_ZNSt6vectorIdSaIdEE14_M_fill_insertEN9__gnu_cxx17__normal_iteratorIPdS1_EEjRKd
.eh_frame$_ZNSt6vectorIdSaIdEE15_M_range_insertIPKdEEvN9__gnu_cxx17__normal_iteratorIPdS1_EET_S9_St20forward_iterator_tag
.eh_frame$_ZNSt6vectorIdSaIdEE7reserveEj
.eh_frame$_ZNSt6vectorIdSaIdEE9push_backERKd
.eh_frame$_ZNSt6vectorIdSaIdEEaSERKS1_
.eh_frame$_ZNSt6vectorIhSaIhEE13_M_insert_auxEN9__gnu_cxx17__normal_iteratorIPhS1_EERKh
.eh_frame$_ZNSt6vectorIhSaIhEE7reserveEj
.eh_frame$_ZNSt6vectorIhSaIhEE9push_backERKh
.eh_frame$_ZNSt6vectorIjSaIjEE13_M_insert_auxEN9__gnu_cxx17__normal_iteratorIPjS1_EERKj
.eh_frame$_ZNSt6vectorIjSaIjEE7reserveEj
.eh_frame$_ZNSt6vectorIjSaIjEE9push_backERKj
.eh_frame$_ZNSt6vectorIlSaIlEE13_M_insert_auxEN9__gnu_cxx17__normal_iteratorIPlS1_EERKl
.eh_frame$_ZNSt6vectorIlSaIlEE14_M_fill_insertEN9__gnu_cxx17__normal_iteratorIPlS1_EEjRKl
.eh_frame$_ZNSt6vectorIlSaIlEE6insertEN9__gnu_cxx17__normal_iteratorIPlS1_EERKl
.eh_frame$_ZNSt6vectorIlSaIlEE9push_backERKl
.eh_frame$_ZNSt6vectorIlSaIlEEaSERKS1_
.eh_frame$_ZNSt6vectorIP10lt__handleSaIS1_EE13_M_insert_auxEN9__gnu_cxx17__normal_iteratorIPS1_S3_EERKS1_
.eh_frame$_ZNSt6vectorIP11PRCPointSetSaIS1_EE13_M_insert_auxEN9__gnu_cxx17__normal_iteratorIPS1_S3_EERKS1_
.eh_frame$_ZNSt6vectorIP11PRCPolyWireSaIS1_EE13_M_insert_auxEN9__gnu_cxx17__normal_iteratorIPS1_S3_EERKS1_
.eh_frame$_ZNSt6vectorIP16PRCPolyBrepModelSaIS1_EE13_M_insert_auxEN9__gnu_cxx17__normal_iteratorIPS1_S3_EERKS1_
.eh_frame$_ZNSt6vectorIP6mglNumSaIS1_EE13_M_insert_auxEN9__gnu_cxx17__normal_iteratorIPS1_S3_EERKS1_
.eh_frame$_ZNSt6vectorIP8mglDataASaIS1_EE13_M_insert_auxEN9__gnu_cxx17__normal_iteratorIPS1_S3_EERKS1_
.eh_frame$_ZNSt6vectorIPcSaIS0_EE13_M_insert_auxEN9__gnu_cxx17__normal_iteratorIPS0_S2_EERKS0_
.eh_frame$_ZNSt6vectorIPKcSaIS1_EE13_M_insert_auxEN9__gnu_cxx17__normal_iteratorIPS1_S3_EERKS1_
.eh_frame$_ZNSt6vectorIS_IdSaIdEESaIS1_EE14_M_fill_insertEN9__gnu_cxx17__normal_iteratorIPS1_S3_EEjRKS1_
.eh_frame$_ZNSt6vectorIS_ISt7complexIdESaIS1_EESaIS3_EE14_M_fill_insertEN9__gnu_cxx17__normal_iteratorIPS3_S5_EEjRKS3_
.eh_frame$_ZNSt6vectorISbIwSt11char_traitsIwESaIwEESaIS3_EE13_M_insert_auxEN9__gnu_cxx17__normal_iteratorIPS3_S5_EERKS3_
.eh_frame$_ZNSt6vectorIsSaIsEE13_M_insert_auxEN9__gnu_cxx17__normal_iteratorIPsS1_EERKs
.eh_frame$_ZNSt6vectorISsSaISsEE13_M_insert_auxEN9__gnu_cxx17__normal_iteratorIPSsS1_EERKSs
.eh_frame$_ZNSt6vectorISsSaISsEED1Ev
.eh_frame$_ZNSt6vectorISt7complexIdESaIS1_EE13_M_insert_auxEN9__gnu_cxx17__normal_iteratorIPS1_S3_EERKS1_
.eh_frame$_ZNSt6vectorISt7complexIdESaIS1_EEaSERKS3_
.eh_frame$_ZNSt6vectorIwSaIwEE13_M_insert_auxEN9__gnu_cxx17__normal_iteratorIPwS1_EERKw
.eh_frame$_ZNSt8_Rb_treeI10RGBAColourSt4pairIKS0_jESt10_Select1stIS3_ESt4lessIS0_ESaIS3_EE16_M_insert_uniqueERKS3_
.eh_frame$_ZNSt8_Rb_treeI10RGBAColourSt4pairIKS0_jESt10_Select1stIS3_ESt4lessIS0_ESaIS3_EE8_M_eraseEPSt13_Rb_tree_nodeIS3_E
.eh_frame$_ZNSt8_Rb_treeI11PRCmaterialSt4pairIKS0_jESt10_Select1stIS3_ESt4lessIS0_ESaIS3_EE16_M_insert_uniqueERKS3_
.eh_frame$_ZNSt8_Rb_treeI11PRCmaterialSt4pairIKS0_jESt10_Select1stIS3_ESt4lessIS0_ESaIS3_EE8_M_eraseEPSt13_Rb_tree_nodeIS3_E
.eh_frame$_ZNSt8_Rb_treeI11PRCRgbColorSt4pairIKS0_jESt10_Select1stIS3_ESt4lessIS0_ESaIS3_EE16_M_insert_uniqueERKS3_
.eh_frame$_ZNSt8_Rb_treeI11PRCRgbColorSt4pairIKS0_jESt10_Select1stIS3_ESt4lessIS0_ESaIS3_EE8_M_eraseEPSt13_Rb_tree_nodeIS3_E
.eh_frame$_ZNSt8_Rb_treeI11PRCVector2dSt4pairIKS0_jESt10_Select1stIS3_ESt4lessIS0_ESaIS3_EE16_M_insert_uniqueERKS3_
.eh_frame$_ZNSt8_Rb_treeI11PRCVector2dSt4pairIKS0_jESt10_Select1stIS3_ESt4lessIS0_ESaIS3_EE8_M_eraseEPSt13_Rb_tree_nodeIS3_E
.eh_frame$_ZNSt8_Rb_treeI11PRCVector3dSt4pairIKS0_jESt10_Select1stIS3_ESt4lessIS0_ESaIS3_EE16_M_insert_uniqueERKS3_
.eh_frame$_ZNSt8_Rb_treeI11PRCVector3dSt4pairIKS0_jESt10_Select1stIS3_ESt4lessIS0_ESaIS3_EE4findERS2_
.eh_frame$_ZNSt8_Rb_treeI11PRCVector3dSt4pairIKS0_jESt10_Select1stIS3_ESt4lessIS0_ESaIS3_EE8_M_eraseEPSt13_Rb_tree_nodeIS3_E
.eh_frame$_ZNSt8_Rb_treeI15RGBAColourWidthSt4pairIKS0_jESt10_Select1stIS3_ESt4lessIS0_ESaIS3_EE16_M_insert_uniqueERKS3_
.eh_frame$_ZNSt8_Rb_treeI15RGBAColourWidthSt4pairIKS0_jESt10_Select1stIS3_ESt4lessIS0_ESaIS3_EE8_M_eraseEPSt13_Rb_tree_nodeIS3_E
.eh_frame$_ZNSt8_Rb_treeI26PRCGeneralTransformation3dSt4pairIKS0_jESt10_Select1stIS3_ESt4lessIS0_ESaIS3_EE16_M_insert_uniqueERKS3_
.eh_frame$_ZNSt8_Rb_treeI26PRCGeneralTransformation3dSt4pairIKS0_jESt10_Select1stIS3_ESt4lessIS0_ESaIS3_EE8_M_eraseEPSt13_Rb_tree_nodeIS3_E
.eh_frame$_ZNSt8_Rb_treeI5ObjUVSt4pairIKS0_jESt10_Select1stIS3_ESt4lessIS0_ESaIS3_EE16_M_insert_uniqueERKS3_
.eh_frame$_ZNSt8_Rb_treeI5ObjUVSt4pairIKS0_jESt10_Select1stIS3_ESt4lessIS0_ESaIS3_EE8_M_eraseEPSt13_Rb_tree_nodeIS3_E
.eh_frame$_ZNSt8_Rb_treeI6ObjXYZSt4pairIKS0_jESt10_Select1stIS3_ESt4lessIS0_ESaIS3_EE16_M_insert_uniqueERKS3_
.eh_frame$_ZNSt8_Rb_treeI6ObjXYZSt4pairIKS0_jESt10_Select1stIS3_ESt4lessIS0_ESaIS3_EE8_M_eraseEPSt13_Rb_tree_nodeIS3_E
.eh_frame$_ZNSt8_Rb_treeI8mglColorSt4pairIKS0_jESt10_Select1stIS3_E11lt_mglColorSaIS3_EE16_M_insert_uniqueERKS3_
.eh_frame$_ZNSt8_Rb_treeI8mglColorSt4pairIKS0_jESt10_Select1stIS3_E11lt_mglColorSaIS3_EE8_M_eraseEPSt13_Rb_tree_nodeIS3_E
.eh_frame$_ZNSt8_Rb_treeIdSt4pairIKdSt4listI11PRCtesslineSaIS3_EEESt10_Select1stIS6_ESt4lessIdESaIS6_EE24_M_get_insert_unique_posERS1_
.eh_frame$_ZNSt8_Rb_treeIdSt4pairIKdSt4listI11PRCtesslineSaIS3_EEESt10_Select1stIS6_ESt4lessIdESaIS6_EE29_M_get_insert_hint_unique_posESt23_Rb_tree_const_iteratorIS6_ERS1_
.eh_frame$_ZNSt8_Rb_treeIdSt4pairIKdSt4listI11PRCtesslineSaIS3_EEESt10_Select1stIS6_ESt4lessIdESaIS6_EE7_M_copyEPKSt13_Rb_tree_nodeIS6_EPSE_
.eh_frame$_ZNSt8_Rb_treeIdSt4pairIKdSt4listI11PRCtesslineSaIS3_EEESt10_Select1stIS6_ESt4lessIdESaIS6_EE8_M_eraseEPSt13_Rb_tree_nodeIS6_E
.eh_frame$_ZNSt8_Rb_treeIjSt4pairIKjSt5dequeI7ObjLineSaIS3_EEESt10_Select1stIS6_ESt4lessIjESaIS6_EE17_M_insert_unique_ESt23_Rb_tree_const_iteratorIS6_ERKS6_
.eh_frame$_ZNSt8_Rb_treeIjSt4pairIKjSt5dequeI7ObjLineSaIS3_EEESt10_Select1stIS6_ESt4lessIjESaIS6_EE24_M_get_insert_unique_posERS1_
.eh_frame$_ZNSt8_Rb_treeIjSt4pairIKjSt5dequeI7ObjLineSaIS3_EEESt10_Select1stIS6_ESt4lessIjESaIS6_EE29_M_get_insert_hint_unique_posESt23_Rb_tree_const_iteratorIS6_ERS1_
.eh_frame$_ZNSt8_Rb_treeIjSt4pairIKjSt5dequeI7ObjLineSaIS3_EEESt10_Select1stIS6_ESt4lessIjESaIS6_EE8_M_eraseEPSt13_Rb_tree_nodeIS6_E
.eh_frame$_ZNSt8_Rb_treeIjSt4pairIKjSt5dequeIjSaIjEEESt10_Select1stIS5_ESt4lessIjESaIS5_EE17_M_insert_unique_ESt23_Rb_tree_const_iteratorIS5_ERKS5_
.eh_frame$_ZNSt8_Rb_treeIjSt4pairIKjSt5dequeIjSaIjEEESt10_Select1stIS5_ESt4lessIjESaIS5_EE24_M_get_insert_unique_posERS1_
.eh_frame$_ZNSt8_Rb_treeIjSt4pairIKjSt5dequeIjSaIjEEESt10_Select1stIS5_ESt4lessIjESaIS5_EE29_M_get_insert_hint_unique_posESt23_Rb_tree_const_iteratorIS5_ERS1_
.eh_frame$_ZNSt8_Rb_treeIjSt4pairIKjSt5dequeIjSaIjEEESt10_Select1stIS5_ESt4lessIjESaIS5_EE8_M_eraseEPSt13_Rb_tree_nodeIS5_E
.eh_frame$_ZNSt8_Rb_treeIjSt4pairIKjSt6vectorI11PRCVector3dSaIS3_EEESt10_Select1stIS6_ESt4lessIjESaIS6_EE24_M_get_insert_unique_posERS1_
.eh_frame$_ZNSt8_Rb_treeIjSt4pairIKjSt6vectorI11PRCVector3dSaIS3_EEESt10_Select1stIS6_ESt4lessIjESaIS6_EE29_M_get_insert_hint_unique_posESt23_Rb_tree_const_iteratorIS6_ERS1_
.eh_frame$_ZNSt8_Rb_treeIjSt4pairIKjSt6vectorI11PRCVector3dSaIS3_EEESt10_Select1stIS6_ESt4lessIjESaIS6_EE7_M_copyEPKSt13_Rb_tree_nodeIS6_EPSE_
.eh_frame$_ZNSt8_Rb_treeIjSt4pairIKjSt6vectorI11PRCVector3dSaIS3_EEESt10_Select1stIS6_ESt4lessIjESaIS6_EE8_M_eraseEPSt13_Rb_tree_nodeIS6_E
.eh_frame$_ZNSt8_Rb_treeIllSt9_IdentityIlESt4lessIlESaIlEE10_M_insert_EPSt18_Rb_tree_node_baseS7_RKl
.eh_frame$_ZNSt8_Rb_treeIllSt9_IdentityIlESt4lessIlESaIlEE16_M_insert_uniqueERKl
.eh_frame$_ZNSt8_Rb_treeIllSt9_IdentityIlESt4lessIlESaIlEE24_M_get_insert_unique_posERKl
.eh_frame$_ZNSt8_Rb_treeIllSt9_IdentityIlESt4lessIlESaIlEE29_M_get_insert_hint_unique_posESt23_Rb_tree_const_iteratorIlERKl
.eh_frame$_ZNSt8_Rb_treeIllSt9_IdentityIlESt4lessIlESaIlEE8_M_eraseEPSt13_Rb_tree_nodeIlE
.eh_frame$_ZNSt8_Rb_treeIP10PRCPictureSt4pairIKS1_jESt10_Select1stIS4_E13PRCPictureCmpSaIS4_EE16_M_insert_uniqueERKS4_
.eh_frame$_ZNSt8_Rb_treeIP10PRCPictureSt4pairIKS1_jESt10_Select1stIS4_E13PRCPictureCmpSaIS4_EE8_M_eraseEPSt13_Rb_tree_nodeIS4_E
.eh_frame$_ZNSt8_Rb_treeIP18PRCMaterialGenericSt4pairIKS1_jESt10_Select1stIS4_E21PRCMaterialGenericCmpSaIS4_EE16_M_insert_uniqueERKS4_
.eh_frame$_ZNSt8_Rb_treeIP18PRCMaterialGenericSt4pairIKS1_jESt10_Select1stIS4_E21PRCMaterialGenericCmpSaIS4_EE8_M_eraseEPSt13_Rb_tree_nodeIS4_E
.eh_frame$_ZNSt8_Rb_treeIP19PRCUncompressedFileSt4pairIKS1_jESt10_Select1stIS4_E22PRCUncompressedFileCmpSaIS4_EE16_M_insert_uniqueERKS4_
.eh_frame$_ZNSt8_Rb_treeIP19PRCUncompressedFileSt4pairIKS1_jESt10_Select1stIS4_E22PRCUncompressedFileCmpSaIS4_EE24_M_get_insert_unique_posERS3_
.eh_frame$_ZNSt8_Rb_treeIP19PRCUncompressedFileSt4pairIKS1_jESt10_Select1stIS4_E22PRCUncompressedFileCmpSaIS4_EE8_M_eraseEPSt13_Rb_tree_nodeIS4_E
.eh_frame$_ZNSt8_Rb_treeIP20PRCTextureDefinitionSt4pairIKS1_jESt10_Select1stIS4_E23PRCTextureDefinitionCmpSaIS4_EE16_M_insert_uniqueERKS4_
.eh_frame$_ZNSt8_Rb_treeIP20PRCTextureDefinitionSt4pairIKS1_jESt10_Select1stIS4_E23PRCTextureDefinitionCmpSaIS4_EE8_M_eraseEPSt13_Rb_tree_nodeIS4_E
.eh_frame$_ZNSt8_Rb_treeIP21PRCTextureApplicationSt4pairIKS1_jESt10_Select1stIS4_E24PRCTextureApplicationCmpSaIS4_EE16_M_insert_uniqueERKS4_
.eh_frame$_ZNSt8_Rb_treeIP21PRCTextureApplicationSt4pairIKS1_jESt10_Select1stIS4_E24PRCTextureApplicationCmpSaIS4_EE8_M_eraseEPSt13_Rb_tree_nodeIS4_E
.eh_frame$_ZNSt8_Rb_treeIP8PRCStyleSt4pairIKS1_jESt10_Select1stIS4_E11PRCStyleCmpSaIS4_EE16_M_insert_uniqueERKS4_
.eh_frame$_ZNSt8_Rb_treeIP8PRCStyleSt4pairIKS1_jESt10_Select1stIS4_E11PRCStyleCmpSaIS4_EE8_M_eraseEPSt13_Rb_tree_nodeIS4_E
.eh_frame$_ZplRK7QStringPKc
.eh_frame$_ZplRK7QStringS1_
.eh_frame$_ZSt11__push_heapIN9__gnu_cxx17__normal_iteratorIP3ShxSt6vectorIS2_SaIS2_EEEEiS2_EvT_T0_S9_T1_
.eh_frame$_ZSt13__adjust_heapIN9__gnu_cxx17__normal_iteratorIP13mglGlyphDescrSt6vectorIS2_SaIS2_EEEEiS2_EvT_T0_S9_T1_
.eh_frame$_ZSt13__adjust_heapIN9__gnu_cxx17__normal_iteratorIP3ShxSt6vectorIS2_SaIS2_EEEEiS2_EvT_T0_S9_T1_
.eh_frame$_ZSt13__adjust_heapIN9__gnu_cxx17__normal_iteratorIP5DupexSt6vectorIS2_SaIS2_EEEEiS2_EvT_T0_S9_T1_
.eh_frame$_ZSt13__adjust_heapIN9__gnu_cxx17__normal_iteratorIPlSt6vectorIlSaIlEEEEilEvT_T0_S8_T1_
.eh_frame$_ZSt13__heap_selectIN9__gnu_cxx17__normal_iteratorIP13mglGlyphDescrSt6vectorIS2_SaIS2_EEEEEvT_S8_S8_
.eh_frame$_ZSt13__heap_selectIN9__gnu_cxx17__normal_iteratorIP5DupexSt6vectorIS2_SaIS2_EEEEEvT_S8_S8_
.eh_frame$_ZSt14__complex_sqrtIdESt7complexIT_ERKS2_
.eh_frame$_ZSt16__insertion_sortIN9__gnu_cxx17__normal_iteratorIP13mglGlyphDescrSt6vectorIS2_SaIS2_EEEEEvT_S8_
.eh_frame$_ZSt16__insertion_sortIN9__gnu_cxx17__normal_iteratorIP3ShxSt6vectorIS2_SaIS2_EEEEEvT_S8_
.eh_frame$_ZSt16__insertion_sortIN9__gnu_cxx17__normal_iteratorIP5DupexSt6vectorIS2_SaIS2_EEEEEvT_S8_
.eh_frame$_ZSt16__insertion_sortIN9__gnu_cxx17__normal_iteratorIPlSt6vectorIlSaIlEEEEEvT_S7_
.eh_frame$_ZSt16__introsort_loopIN9__gnu_cxx17__normal_iteratorIP13mglGlyphDescrSt6vectorIS2_SaIS2_EEEEiEvT_S8_T0_
.eh_frame$_ZSt16__introsort_loopIN9__gnu_cxx17__normal_iteratorIP3ShxSt6vectorIS2_SaIS2_EEEEiEvT_S8_T0_
.eh_frame$_ZSt16__introsort_loopIN9__gnu_cxx17__normal_iteratorIP5DupexSt6vectorIS2_SaIS2_EEEEiEvT_S8_T0_
.eh_frame$_ZSt16__introsort_loopIN9__gnu_cxx17__normal_iteratorIPlSt6vectorIlSaIlEEEEiEvT_S7_T0_
.eh_frame$_ZSt19__move_median_firstIN9__gnu_cxx17__normal_iteratorIP5DupexSt6vectorIS2_SaIS2_EEEEEvT_S8_S8_
.eh_frame$_ZSt22__complex_pow_unsignedIdESt7complexIT_ES2_j
.eh_frame$_ZSt25__unguarded_linear_insertIN9__gnu_cxx17__normal_iteratorIP13mglGlyphDescrSt6vectorIS2_SaIS2_EEEEEvT_
.eh_frame$_ZSt25__unguarded_linear_insertIN9__gnu_cxx17__normal_iteratorIP3ShxSt6vectorIS2_SaIS2_EEEEEvT_
.eh_frame$_ZSt25__unguarded_linear_insertIN9__gnu_cxx17__normal_iteratorIP5DupexSt6vectorIS2_SaIS2_EEEEEvT_
.eh_frame$_ZSt8_DestroyISt15_Deque_iteratorI18PRCSingleAttributeRS1_PS1_EEvT_S5_
.eh_frame$_ZSt8_DestroyISt15_Deque_iteratorI8PRCgroupRS1_PS1_EEvT_S5_
.eh_frame$_ZSt9make_heapIN9__gnu_cxx17__normal_iteratorIP3ShxSt6vectorIS2_SaIS2_EEEEEvT_S8_
.eh_frame$_ZSteqIcEN9__gnu_cxx11__enable_ifIXsrSt9__is_charIT_E7__valueEbE6__typeERKSbIS3_St11char_traitsIS3_ESaIS3_EESC_
.eh_frame$_ZStplIcSt11char_traitsIcESaIcEESbIT_T0_T1_ERKS6_PKS3_
.eh_frame$_ZStplIcSt11char_traitsIcESaIcEESbIT_T0_T1_ERKS6_S8_
.eh_frame$_ZStplIwSt11char_traitsIwESaIwEESbIT_T0_T1_EPKS3_RKS6_
.rdata$_ZTI10Fl_MGLView
.rdata$_ZTI10PRCBlend01
.rdata$_ZTI10PRCSurface
.rdata$_ZTI11mglCanvasFL
.rdata$_ZTI11mglCanvasGL
.rdata$_ZTI11mglCanvasQT
.rdata$_ZTI11mglFormulaC
.rdata$_ZTI11PRCBrepData
.rdata$_ZTI11PRCCylinder
.rdata$_ZTI11PRCGraphics
.rdata$_ZTI11PRCMaterial
.rdata$_ZTI11PRCPointSet
.rdata$_ZTI11PRCPolyLine
.rdata$_ZTI11PRCPolyWire
.rdata$_ZTI11PRCTopoItem
.rdata$_ZTI11PRCWireEdge
.rdata$_ZTI12mglCanvasWnd
.rdata$_ZTI12PRCBrepModel
.rdata$_ZTI12QPaintDevice
.rdata$_ZTI13PRC3DWireTess
.rdata$_ZTI13PRCAttributes
.rdata$_ZTI13PRCNURBSCurve
.rdata$_ZTI14ContentPRCBase
.rdata$_ZTI14PRCBoundingBox
.rdata$_ZTI14PRCContentBody
.rdata$_ZTI15PRCBaseGeometry
.rdata$_ZTI15PRCBaseTopology
.rdata$_ZTI15PRCContentCurve
.rdata$_ZTI15PRCNURBSSurface
.rdata$_ZTI16PRCPolyBrepModel
.rdata$_ZTI17PRCContentSurface
.rdata$_ZTI17PRCSingleWireBody
.rdata$_ZTI17PRCTransformation
.rdata$_ZTI18PRCContentWireEdge
.rdata$_ZTI18PRCMaterialGeneric
.rdata$_ZTI19PRCCoordinateSystem
.rdata$_ZTI19PRCParameterization
.rdata$_ZTI19PRCTransformation3d
.rdata$_ZTI21PRCCompressedBrepData
.rdata$_ZTI21PRCRepresentationItem
.rdata$_ZTI21PRCTextureApplication
.rdata$_ZTI21PRCUVParameterization
.rdata$_ZTI22PRCContentBaseTessData
.rdata$_ZTI26PRCGeneralTransformation3d
.rdata$_ZTI28PRCCartesianTransformation3d
.rdata$_ZTI28PRCRepresentationItemContent
.rdata$_ZTI6PRCSet
.rdata$_ZTI7mglBase
.rdata$_ZTI7mglData
.rdata$_ZTI7mglFont
.rdata$_ZTI7PRCBody
.rdata$_ZTI7PRCCone
.rdata$_ZTI7PRCFace
.rdata$_ZTI7PRCTess
.rdata$_ZTI7PRCWire
.rdata$_ZTI7QMathGL
.rdata$_ZTI7QObject
.rdata$_ZTI7QWidget
.rdata$_ZTI8Fl_Group
.rdata$_ZTI8mglDataA
.rdata$_ZTI8mglDataC
.rdata$_ZTI8mglDataR
.rdata$_ZTI8mglDataT
.rdata$_ZTI8mglDataV
.rdata$_ZTI8mglDataW
.rdata$_ZTI8mglGraph
.rdata$_ZTI8mglParse
.rdata$_ZTI8PRCCurve
.rdata$_ZTI8PRCRuled
.rdata$_ZTI8PRCShell
.rdata$_ZTI8PRCTorus
.rdata$_ZTI9Fl_MathGL
.rdata$_ZTI9Fl_Widget
.rdata$_ZTI9Fl_Window
.rdata$_ZTI9mglCanvas
.rdata$_ZTI9mglParser
.rdata$_ZTI9PRC3DTess
.rdata$_ZTI9PRCCircle
.rdata$_ZTI9PRCConnex
.rdata$_ZTI9PRCSphere
.rdata$_ZTS10Fl_MGLView
.rdata$_ZTS10PRCBlend01
.rdata$_ZTS10PRCSurface
.rdata$_ZTS11mglCanvasFL
.rdata$_ZTS11mglCanvasGL
.rdata$_ZTS11mglCanvasQT
.rdata$_ZTS11mglFormulaC
.rdata$_ZTS11PRCBrepData
.rdata$_ZTS11PRCCylinder
.rdata$_ZTS11PRCGraphics
.rdata$_ZTS11PRCMaterial
.rdata$_ZTS11PRCPointSet
.rdata$_ZTS11PRCPolyLine
.rdata$_ZTS11PRCPolyWire
.rdata$_ZTS11PRCTopoItem
.rdata$_ZTS11PRCWireEdge
.rdata$_ZTS12mglCanvasWnd
.rdata$_ZTS12PRCBrepModel
.rdata$_ZTS12QPaintDevice
.rdata$_ZTS13PRC3DWireTess
.rdata$_ZTS13PRCAttributes
.rdata$_ZTS13PRCNURBSCurve
.rdata$_ZTS14ContentPRCBase
.rdata$_ZTS14PRCBoundingBox
.rdata$_ZTS14PRCContentBody
.rdata$_ZTS15PRCBaseGeometry
.rdata$_ZTS15PRCBaseTopology
.rdata$_ZTS15PRCContentCurve
.rdata$_ZTS15PRCNURBSSurface
.rdata$_ZTS16PRCPolyBrepModel
.rdata$_ZTS17PRCContentSurface
.rdata$_ZTS17PRCSingleWireBody
.rdata$_ZTS17PRCTransformation
.rdata$_ZTS18PRCContentWireEdge
.rdata$_ZTS18PRCMaterialGeneric
.rdata$_ZTS19PRCCoordinateSystem
.rdata$_ZTS19PRCParameterization
.rdata$_ZTS19PRCTransformation3d
.rdata$_ZTS21PRCCompressedBrepData
.rdata$_ZTS21PRCRepresentationItem
.rdata$_ZTS21PRCTextureApplication
.rdata$_ZTS21PRCUVParameterization
.rdata$_ZTS22PRCContentBaseTessData
.rdata$_ZTS26PRCGeneralTransformation3d
.rdata$_ZTS28PRCCartesianTransformation3d
.rdata$_ZTS28PRCRepresentationItemContent
.rdata$_ZTS6PRCSet
.rdata$_ZTS7mglBase
.rdata$_ZTS7mglData
.rdata$_ZTS7mglFont
.rdata$_ZTS7PRCBody
.rdata$_ZTS7PRCCone
.rdata$_ZTS7PRCFace
.rdata$_ZTS7PRCTess
.rdata$_ZTS7PRCWire
.rdata$_ZTS7QMathGL
.rdata$_ZTS7QObject
.rdata$_ZTS7QWidget
.rdata$_ZTS8Fl_Group
.rdata$_ZTS8mglDataA
.rdata$_ZTS8mglDataC
.rdata$_ZTS8mglDataR
.rdata$_ZTS8mglDataT
.rdata$_ZTS8mglDataV
.rdata$_ZTS8mglDataW
.rdata$_ZTS8mglGraph
.rdata$_ZTS8mglParse
.rdata$_ZTS8PRCCurve
.rdata$_ZTS8PRCRuled
.rdata$_ZTS8PRCShell
.rdata$_ZTS8PRCTorus
.rdata$_ZTS9Fl_MathGL
.rdata$_ZTS9Fl_Widget
.rdata$_ZTS9Fl_Window
.rdata$_ZTS9mglCanvas
.rdata$_ZTS9mglParser
.rdata$_ZTS9PRC3DTess
.rdata$_ZTS9PRCCircle
.rdata$_ZTS9PRCConnex
.rdata$_ZTS9PRCSphere
.rdata$_ZTV10Fl_MGLView
.rdata$_ZTV10PRCBlend01
.rdata$_ZTV10PRCSurface
.rdata$_ZTV11mglCanvasFL
.rdata$_ZTV11mglCanvasGL
.rdata$_ZTV11mglCanvasQT
.rdata$_ZTV11mglFormulaC
.rdata$_ZTV11PRCBrepData
.rdata$_ZTV11PRCCylinder
.rdata$_ZTV11PRCMaterial
.rdata$_ZTV11PRCPointSet
.rdata$_ZTV11PRCPolyLine
.rdata$_ZTV11PRCPolyWire
.rdata$_ZTV11PRCTopoItem
.rdata$_ZTV11PRCWireEdge
.rdata$_ZTV12mglCanvasWnd
.rdata$_ZTV12PRCBrepModel
.rdata$_ZTV13PRC3DWireTess
.rdata$_ZTV13PRCNURBSCurve
.rdata$_ZTV15PRCNURBSSurface
.rdata$_ZTV16PRCPolyBrepModel
.rdata$_ZTV17PRCSingleWireBody
.rdata$_ZTV18PRCMaterialGeneric
.rdata$_ZTV19PRCCoordinateSystem
.rdata$_ZTV19PRCTransformation3d
.rdata$_ZTV21PRCCompressedBrepData
.rdata$_ZTV21PRCRepresentationItem
.rdata$_ZTV21PRCTextureApplication
.rdata$_ZTV26PRCGeneralTransformation3d
.rdata$_ZTV28PRCCartesianTransformation3d
.rdata$_ZTV6PRCSet
.rdata$_ZTV7mglBase
.rdata$_ZTV7mglData
.rdata$_ZTV7mglFont
.rdata$_ZTV7PRCBody
.rdata$_ZTV7PRCCone
.rdata$_ZTV7PRCFace
.rdata$_ZTV7PRCTess
.rdata$_ZTV7PRCWire
.rdata$_ZTV7QMathGL
.rdata$_ZTV8mglDataA
.rdata$_ZTV8mglDataC
.rdata$_ZTV8mglDataR
.rdata$_ZTV8mglDataT
.rdata$_ZTV8mglDataV
.rdata$_ZTV8mglDataW
.rdata$_ZTV8mglGraph
.rdata$_ZTV8mglParse
.rdata$_ZTV8PRCCurve
.rdata$_ZTV8PRCRuled
.rdata$_ZTV8PRCShell
.rdata$_ZTV8PRCTorus
.rdata$_ZTV9Fl_MathGL
.rdata$_ZTV9mglCanvas
.rdata$_ZTV9mglParser
.rdata$_ZTV9PRC3DTess
.rdata$_ZTV9PRCCircle
.rdata$_ZTV9PRCConnex
.rdata$_ZTV9PRCSphere
.text$_Z10mglLineartIdET_PKS0_lllddd
.text$_Z10mglLineartISt7complexIdEET_PKS2_lllddd
.text$_Z11mglSpline1tIdET_PKS0_ldPS0_
.text$_Z11mglSpline1tISt7complexIdEET_PKS2_ldPS2_
.text$_Z11mglSpline3tIdET_PKS0_llldddPS0_S3_S3_
.text$_Z11mglSpline3tISt7complexIdEET_PKS2_llldddPS2_S5_S5_
.text$_Z12mgl_spline3tIdET_PKS0_ldRS0_
.text$_Z12mgl_spline3tISt7complexIdEET_PKS2_ldRS2_
.text$_Z12mglSpline1stIdET_PKS0_ld
.text$_Z12mglSpline1stISt7complexIdEET_PKS2_ld
.text$_Z12mglSpline3stIdET_PKS0_lllddd
.text$_Z12mglSpline3stISt7complexIdEET_PKS2_lllddd
.text$_Z13mgl_spline3stIdET_PKS0_ld
.text$_Z13mgl_spline3stISt7complexIdEET_PKS2_ld
.text$_Z16mgl_gspline_initIdEvlPKdPKT_PS2_
.text$_Z16mgl_gspline_initISt7complexIdEEvlPKdPKT_PS4_
.text$_ZN10_mgl_sliceD1Ev
.text$_ZN10mglDrawDataSERKS_
.text$_ZN10mglDrawDatC1ERKS_
.text$_ZN10mglDrawDatD1Ev
.text$_ZN10mglFnStackD1Ev
.text$_ZN10mglSegment3setEddddlllPK8mglDataAS2_S2_
.text$_ZN10mglTextureC1ERKS_
.text$_ZN10PRCBlend0116serializeSurfaceER12PRCbitStream
.text$_ZN10PRCBlend01D0Ev
.text$_ZN10PRCBlend01D1Ev
.text$_ZN10PRCSurfaceD0Ev
.text$_ZN10PRCSurfaceD1Ev
.text$_ZN10QByteArrayD1Ev
.text$_ZN11mglCanvasGL10SetQualityEi
.text$_ZN11mglCanvasGL7SetSizeEiib
.text$_ZN11PRCBrepData13serializeBodyER12PRCbitStream
.text$_ZN11PRCBrepDataC1Ev
.text$_ZN11PRCBrepDataD0Ev
.text$_ZN11PRCBrepDataD1Ev
.text$_ZN11PRCCylinder16serializeSurfaceER12PRCbitStream
.text$_ZN11PRCCylinderD0Ev
.text$_ZN11PRCCylinderD1Ev
.text$_ZN11PRCMaterialD0Ev
.text$_ZN11PRCMaterialD1Ev
.text$_ZN11PRCPointSet27serializeRepresentationItemER12PRCbitStream
.text$_ZN11PRCPointSetC1ESs
.text$_ZN11PRCPointSetD0Ev
.text$_ZN11PRCPointSetD1Ev
.text$_ZN11PRCPolyLine14serializeCurveER12PRCbitStream
.text$_ZN11PRCPolyLineD0Ev
.text$_ZN11PRCPolyLineD1Ev
.text$_ZN11PRCPolyWire27serializeRepresentationItemER12PRCbitStream
.text$_ZN11PRCPolyWireC1ESs
.text$_ZN11PRCPolyWireD0Ev
.text$_ZN11PRCPolyWireD1Ev
.text$_ZN11PRCtessquadC1ERKS_
.text$_ZN11PRCTopoItemD0Ev
.text$_ZN11PRCTopoItemD1Ev
.text$_ZN11PRCWireEdge17serializeTopoItemER12PRCbitStream
.text$_ZN11PRCWireEdgeD0Ev
.text$_ZN11PRCWireEdgeD1Ev
.text$_ZN12mglCanvasWnd9NextFrameEv
.text$_ZN12mglCanvasWnd9PrevFrameEv
.text$_ZN12ObjMaterials8addColorERK8mglColor
.text$_ZN12PRCAttributeD1Ev
.text$_ZN12PRCBrepModel27serializeRepresentationItemER12PRCbitStream
.text$_ZN12PRCBrepModelC1ESs
.text$_ZN12PRCBrepModelD0Ev
.text$_ZN12PRCBrepModelD1Ev
.text$_ZN12prctriangles13addColourInfoERK6mglPnt
.text$_ZN12prctriangles8addPointEfff
.text$_ZN13PRC3DWireTess21serializeBaseTessDataER12PRCbitStream
.text$_ZN13PRC3DWireTessD0Ev
.text$_ZN13PRC3DWireTessD1Ev
.text$_ZN13PRCNURBSCurve14serializeCurveER12PRCbitStream
.text$_ZN13PRCNURBSCurveD0Ev
.text$_ZN13PRCNURBSCurveD1Ev
.text$_ZN14_mgl_vec_sliceC1Ev
.text$_ZN14_mgl_vec_sliceD1Ev
.text$_ZN14ContentPRCBaseC2EjSs
.text$_ZN14ContentPRCBaseD1Ev
.text$_ZN14ContentPRCBaseD2Ev
.text$_ZN15PRCBaseGeometryD2Ev
.text$_ZN15PRCBaseTopologyD2Ev
.text$_ZN15PRCNURBSSurface16serializeSurfaceER12PRCbitStream
.text$_ZN15PRCNURBSSurfaceD0Ev
.text$_ZN15PRCNURBSSurfaceD1Ev
.text$_ZN16PRCFileStructureD1Ev
.text$_ZN16PRCPolyBrepModel27serializeRepresentationItemER12PRCbitStream
.text$_ZN16PRCPolyBrepModelC1ESs
.text$_ZN16PRCPolyBrepModelD0Ev
.text$_ZN16PRCPolyBrepModelD1Ev
.text$_ZN17PRCPartDefinitionD1Ev
.text$_ZN17PRCSingleWireBody13serializeBodyER12PRCbitStream
.text$_ZN17PRCSingleWireBodyD0Ev
.text$_ZN17PRCSingleWireBodyD1Ev
.text$_ZN18PRCMaterialGeneric17serializeMaterialER12PRCbitStream
.text$_ZN18PRCMaterialGenericD0Ev
.text$_ZN18PRCMaterialGenericD1Ev
.text$_ZN18PRCSingleAttributeD1Ev
.text$_ZN19PRCCoordinateSystem27serializeRepresentationItemER12PRCbitStream
.text$_ZN19PRCCoordinateSystemC1ESs
.text$_ZN19PRCCoordinateSystemD0Ev
.text$_ZN19PRCCoordinateSystemD1Ev
.text$_ZN19PRCTransformation3dD0Ev
.text$_ZN19PRCTransformation3dD1Ev
.text$_ZN20PRCProductOccurrenceD1Ev
.text$_ZN21PRCCompressedBrepData13serializeBodyER12PRCbitStream
.text$_ZN21PRCCompressedBrepData15serialToleranceEv
.text$_ZN21PRCCompressedBrepDataC1Ev
.text$_ZN21PRCCompressedBrepDataD0Ev
.text$_ZN21PRCCompressedBrepDataD1Ev
.text$_ZN21PRCRepresentationItemC2EjSs
.text$_ZN21PRCRepresentationItemD0Ev
.text$_ZN21PRCRepresentationItemD1Ev
.text$_ZN21PRCTextureApplication17serializeMaterialER12PRCbitStream
.text$_ZN21PRCTextureApplicationD0Ev
.text$_ZN21PRCTextureApplicationD1Ev
.text$_ZN26PRCGeneralTransformation3dD0Ev
.text$_ZN26PRCGeneralTransformation3dD1Ev
.text$_ZN28PRCCartesianTransformation3dD0Ev
.text$_ZN28PRCCartesianTransformation3dD1Ev
.text$_ZN6mglArgD1Ev
.text$_ZN6PRCSet27serializeRepresentationItemER12PRCbitStream
.text$_ZN6PRCSetD0Ev
.text$_ZN6PRCSetD1Ev
.text$_ZN7mglAxis5ClearEv
.text$_ZN7mglAxis8AddLabelEPKwd
.text$_ZN7mglAxisC1ERKS_
.text$_ZN7mglAxisD1Ev
.text$_ZN7mglBase10SetQualityEi
.text$_ZN7mglBase11AttachLightEb
.text$_ZN7mglBase13SetFontSizePTEdi
.text$_ZN7mglBase5AlphaEb
.text$_ZN7mglBase5LightEb
.text$_ZN7mglBase6AddPntE8mglPointdS0_di
.text$_ZN7mglData4MoveEPS_
.text$_ZN7mglData5set_vEdlll
.text$_ZN7mglDataC1EbPS_
.text$_ZN7mglDataC1EiPKd
.text$_ZN7mglDataC1Elll
.text$_ZN7mglDataD0Ev
.text$_ZN7mglDataD1Ev
.text$_ZN7mglTextD1Ev
.text$_ZN7ObjXYZs15addVertexCoordsEddd
.text$_ZN7PRCBody15serialToleranceEv
.text$_ZN7PRCBody17serializeTopoItemER12PRCbitStream
.text$_ZN7PRCBodyD0Ev
.text$_ZN7PRCBodyD1Ev
.text$_ZN7PRCCone16serializeSurfaceER12PRCbitStream
.text$_ZN7PRCConeD0Ev
.text$_ZN7PRCConeD1Ev
.text$_ZN7PRCFace17serializeTopoItemER12PRCbitStream
.text$_ZN7PRCFaceD0Ev
.text$_ZN7PRCFaceD1Ev
.text$_ZN7PRCTessD0Ev
.text$_ZN7PRCTessD1Ev
.text$_ZN7PRCWire27serializeRepresentationItemER12PRCbitStream
.text$_ZN7PRCWireD0Ev
.text$_ZN7PRCWireD1Ev
.text$_ZN7QStringD1Ev
.text$_ZN8Fl_Group8as_groupEv
.text$_ZN8mglBlockC1ERKS_
.text$_ZN8mglDataA5set_vEdlll
.text$_ZN8mglDataAD0Ev
.text$_ZN8mglDataAD1Ev
.text$_ZN8mglDataAD2Ev
.text$_ZN8mglDataC4MoveEPS_
.text$_ZN8mglDataC5set_vEdlll
.text$_ZN8mglDataCC1EbPS_
.text$_ZN8mglDataCC1Elll
.text$_ZN8mglDataCD0Ev
.text$_ZN8mglDataCD1Ev
.text$_ZN8mglDataRD0Ev
.text$_ZN8mglDataRD1Ev
.text$_ZN8mglDataTD0Ev
.text$_ZN8mglDataTD1Ev
.text$_ZN8mglDataVD0Ev
.text$_ZN8mglDataVD1Ev
.text$_ZN8mglDataWD0Ev
.text$_ZN8mglDataWD1Ev
.text$_ZN8mglGlyphaSERKS_
.text$_ZN8mglGraph13SetFontSizePTEdi
.text$_ZN8mglGraphD0Ev
.text$_ZN8mglGraphD1Ev
.text$_ZN8mglGroupC1ERKS_
.text$_ZN8mglGroupD1Ev
.text$_ZN8mglParseD0Ev
.text$_ZN8mglParseD1Ev
.text$_ZN8mglRKdatC1ERKS_
.text$_ZN8mglRKdatD1Ev
.text$_ZN8mglStackI12mglActivePosED1Ev
.text$_ZN8mglStackI6mglPntE5clearEv
.text$_ZN8mglStackI6mglPntE7reserveEj
.text$_ZN8mglStackI6mglPntED1Ev
.text$_ZN8mglStackI7mglPrimE5clearEv
.text$_ZN8mglStackI7mglPrimE7reserveEj
.text$_ZN8mglStackI7mglPrimED1Ev
.text$_ZN8ObjGroup13addColourInfoERK6mglPnt
.text$_ZN8ObjGroup8addLinesEjjPA3_Kd
.text$_ZN8oPRCFileC1ERKSsdj
.text$_ZN8oPRCFileD1Ev
.text$_ZN8PRCCurveD0Ev
.text$_ZN8PRCCurveD1Ev
.text$_ZN8PRCgroupC1ERKS_
.text$_ZN8PRCgroupD1Ev
.text$_ZN8PRCRuled16serializeSurfaceER12PRCbitStream
.text$_ZN8PRCRuledD0Ev
.text$_ZN8PRCRuledD1Ev
.text$_ZN8PRCShell17serializeTopoItemER12PRCbitStream
.text$_ZN8PRCShellC1Ev
.text$_ZN8PRCShellD0Ev
.text$_ZN8PRCShellD1Ev
.text$_ZN8PRCStyleC1ESs
.text$_ZN8PRCTorus16serializeSurfaceER12PRCbitStream
.text$_ZN8PRCTorusD0Ev
.text$_ZN8PRCTorusD1Ev
.text$_ZN9Fl_PixmapC1EPKPKc
.text$_ZN9Fl_Widget12as_gl_windowEv
.text$_ZN9Fl_Widget8as_groupEv
.text$_ZN9Fl_Widget9as_windowEv
.text$_ZN9Fl_Window9as_windowEv
.text$_ZN9PRC3DTess21serializeBaseTessDataER12PRCbitStream
.text$_ZN9PRC3DTessC1Ev
.text$_ZN9PRC3DTessD0Ev
.text$_ZN9PRC3DTessD1Ev
.text$_ZN9PRCCircle14serializeCurveER12PRCbitStream
.text$_ZN9PRCCircleD0Ev
.text$_ZN9PRCCircleD1Ev
.text$_ZN9PRCConnex17serializeTopoItemER12PRCbitStream
.text$_ZN9PRCConnexC1Ev
.text$_ZN9PRCConnexD0Ev
.text$_ZN9PRCConnexD1Ev
.text$_ZN9PRCSphere16serializeSurfaceER12PRCbitStream
.text$_ZN9PRCSphereD0Ev
.text$_ZN9PRCSphereD1Ev
.text$_ZNK10RGBAColourneERKS_
.text$_ZNK11PRCmaterialltERKS_
.text$_ZNK26PRCGeneralTransformation3d25serializeTransformation3dER12PRCbitStream
.text$_ZNK28PRCCartesianTransformation3d25serializeTransformation3dER12PRCbitStream
.text$_ZNK7mglData1vElll
.text$_ZNK7mglData3dvxElll
.text$_ZNK7mglData3dvyElll
.text$_ZNK7mglData3dvzElll
.text$_ZNK7mglData4vthrEl
.text$_ZNK7mglData5GetNxEv
.text$_ZNK7mglData5GetNyEv
.text$_ZNK7mglData5GetNzEv
.text$_ZNK7mglData5valueEddd
.text$_ZNK7mglData6valueDEdddPdS0_S0_
.text$_ZNK7QString7sectionE5QCharii6QFlagsINS_11SectionFlagEE
.text$_ZNK7QStringeqEPKc
.text$_ZNK8mglDataA2vcElll
.text$_ZNK8mglDataA3GetEl
.text$_ZNK8mglDataA4SaveEPKcl
.text$_ZNK8mglDataA4vthrEl
.text$_ZNK8mglDataA5GetNNEv
.text$_ZNK8mglDataA5vcthrEl
.text$_ZNK8mglDataA7MaximalEv
.text$_ZNK8mglDataA7MinimalEv
.text$_ZNK8mglDataA7SaveHDFEPKcS1_b
.text$_ZNK8mglDataA7Spline1Eddd
.text$_ZNK8mglDataA7Spline1ER8mglPointddd
.text$_ZNK8mglDataC1vElll
.text$_ZNK8mglDataC2vcElll
.text$_ZNK8mglDataC3dvxElll
.text$_ZNK8mglDataC3dvyElll
.text$_ZNK8mglDataC3dvzElll
.text$_ZNK8mglDataC3GetEl
.text$_ZNK8mglDataC4SaveEPKcl
.text$_ZNK8mglDataC4vthrEl
.text$_ZNK8mglDataC5GetNxEv
.text$_ZNK8mglDataC5GetNyEv
.text$_ZNK8mglDataC5GetNzEv
.text$_ZNK8mglDataC5valueEddd
.text$_ZNK8mglDataC5vcthrEl
.text$_ZNK8mglDataC6valueDEdddPdS0_S0_
.text$_ZNK8mglDataC7SaveHDFEPKcS1_b
.text$_ZNK8mglDataR1vElll
.text$_ZNK8mglDataR3dvxElll
.text$_ZNK8mglDataR3dvyElll
.text$_ZNK8mglDataR3dvzElll
.text$_ZNK8mglDataR4vthrEl
.text$_ZNK8mglDataR5GetNxEv
.text$_ZNK8mglDataR5GetNyEv
.text$_ZNK8mglDataR5GetNzEv
.text$_ZNK8mglDataR5valueEddd
.text$_ZNK8mglDataR6valueDEdddPdS0_S0_
.text$_ZNK8mglDataR7MaximalEv
.text$_ZNK8mglDataR7MinimalEv
.text$_ZNK8mglDataT1vElll
.text$_ZNK8mglDataT3dvxElll
.text$_ZNK8mglDataT3dvyElll
.text$_ZNK8mglDataT3dvzElll
.text$_ZNK8mglDataT4vthrEl
.text$_ZNK8mglDataT5GetNxEv
.text$_ZNK8mglDataT5GetNyEv
.text$_ZNK8mglDataT5GetNzEv
.text$_ZNK8mglDataT5valueEddd
.text$_ZNK8mglDataT6valueDEdddPdS0_S0_
.text$_ZNK8mglDataT7MaximalEv
.text$_ZNK8mglDataT7MinimalEv
.text$_ZNK8mglDataV1vElll
.text$_ZNK8mglDataV3dvxElll
.text$_ZNK8mglDataV3dvyElll
.text$_ZNK8mglDataV3dvzElll
.text$_ZNK8mglDataV4vthrEl
.text$_ZNK8mglDataV5GetNxEv
.text$_ZNK8mglDataV5GetNyEv
.text$_ZNK8mglDataV5GetNzEv
.text$_ZNK8mglDataV5valueEddd
.text$_ZNK8mglDataV6valueDEdddPdS0_S0_
.text$_ZNK8mglDataV7MaximalEv
.text$_ZNK8mglDataV7MinimalEv
.text$_ZNK8mglDataW1vElll
.text$_ZNK8mglDataW3dvxElll
.text$_ZNK8mglDataW3dvyElll
.text$_ZNK8mglDataW3dvzElll
.text$_ZNK8mglDataW4vthrEl
.text$_ZNK8mglDataW5GetNxEv
.text$_ZNK8mglDataW5GetNyEv
.text$_ZNK8mglDataW5GetNzEv
.text$_ZNK8mglDataW5valueEddd
.text$_ZNK8mglDataW6valueDEdddPdS0_S0_
.text$_ZNK8mglDataW7MaximalEv
.text$_ZNK8mglDataW7MinimalEv
.text$_ZNK9mglCanvas8GetWidthEv
.text$_ZNK9mglCanvas9GetHeightEv
.text$_ZNSs6assignIN9__gnu_cxx17__normal_iteratorIPwSbIwSt11char_traitsIwESaIwEEEEEERSsT_S9_
.text$_ZNSt10_List_baseI11PRCtesslineSaIS0_EE8_M_clearEv
.text$_ZNSt10_List_baseI12PRCAttributeSaIS0_EE8_M_clearEv
.text$_ZNSt11_Deque_baseI11PRCRgbColorSaIS0_EED2Ev
.text$_ZNSt11_Deque_baseI18PRCSingleAttributeSaIS0_EE17_M_initialize_mapEj
.text$_ZNSt11_Deque_baseI18PRCSingleAttributeSaIS0_EED2Ev
.text$_ZNSt11_Deque_baseI7ObjLineSaIS0_EE17_M_initialize_mapEj
.text$_ZNSt11_Deque_baseI7ObjLineSaIS0_EED2Ev
.text$_ZNSt11_Deque_baseI8PRCgroupSaIS0_EE17_M_initialize_mapEj
.text$_ZNSt11_Deque_baseI8PRCgroupSaIS0_EED2Ev
.text$_ZNSt11_Deque_baseIjSaIjEE17_M_initialize_mapEj
.text$_ZNSt11_Deque_baseIjSaIjEED2Ev
.text$_ZNSt11_Deque_baseIP10PRCPictureSaIS1_EED2Ev
.text$_ZNSt11_Deque_baseIP11PRCGraphicsSaIS1_EED2Ev
.text$_ZNSt11_Deque_baseIP11PRCMaterialSaIS1_EED2Ev
.text$_ZNSt11_Deque_baseIP14PRCTopoContextSaIS1_EED2Ev
.text$_ZNSt11_Deque_baseIP17PRCPartDefinitionSaIS1_EED2Ev
.text$_ZNSt11_Deque_baseIP19PRCCoordinateSystemSaIS1_EED2Ev
.text$_ZNSt11_Deque_baseIP19PRCUncompressedFileSaIS1_EE17_M_initialize_mapEj
.text$_ZNSt11_Deque_baseIP19PRCUncompressedFileSaIS1_EED2Ev
.text$_ZNSt11_Deque_baseIP20PRCProductOccurrenceSaIS1_EED2Ev
.text$_ZNSt11_Deque_baseIP20PRCTextureDefinitionSaIS1_EED2Ev
.text$_ZNSt11_Deque_baseIP21PRCRepresentationItemSaIS1_EE17_M_initialize_mapEj
.text$_ZNSt11_Deque_baseIP21PRCRepresentationItemSaIS1_EED2Ev
.text$_ZNSt11_Deque_baseIP7PRCBodySaIS1_EED2Ev
.text$_ZNSt11_Deque_baseIP7PRCFaceSaIS1_EED2Ev
.text$_ZNSt11_Deque_baseIP7PRCTessSaIS1_EED2Ev
.text$_ZNSt11_Deque_baseIP8PRCShellSaIS1_EED2Ev
.text$_ZNSt11_Deque_baseIP8PRCStyleSaIS1_EED2Ev
.text$_ZNSt11_Deque_baseIP9PRCConnexSaIS1_EED2Ev
.text$_ZNSt12_Destroy_auxILb0EE9__destroyIP10mglSegmentEEvT_S4_
.text$_ZNSt12_Destroy_auxILb0EE9__destroyIP10mglTextureEEvT_S4_
.text$_ZNSt15basic_stringbufIcSt11char_traitsIcESaIcEED1Ev
.text$_ZNSt20__uninitialized_copyILb0EE13__uninit_copyIN9__gnu_cxx17__normal_iteratorIPK8mglGlyphSt6vectorIS4_SaIS4_EEEEPS4_EET0_T_SD_SC_
.text$_ZNSt20__uninitialized_copyILb0EE13__uninit_copyIP10mglDrawDatS3_EET0_T_S5_S4_
.text$_ZNSt20__uninitialized_copyILb0EE13__uninit_copyIP10mglFnStackS3_EET0_T_S5_S4_
.text$_ZNSt20__uninitialized_copyILb0EE13__uninit_copyIP10mglSegmentS3_EET0_T_S5_S4_
.text$_ZNSt20__uninitialized_copyILb0EE13__uninit_copyIP10mglTextureS3_EET0_T_S5_S4_
.text$_ZNSt20__uninitialized_copyILb0EE13__uninit_copyIP7mglTextS3_EET0_T_S5_S4_
.text$_ZNSt20__uninitialized_copyILb0EE13__uninit_copyIP8mglGlyphS3_EET0_T_S5_S4_
.text$_ZNSt20__uninitialized_copyILb0EE13__uninit_copyIP8mglGroupS3_EET0_T_S5_S4_
.text$_ZNSt20__uninitialized_copyILb0EE13__uninit_copyIP8mglRKdatS3_EET0_T_S5_S4_
.text$_ZNSt22__uninitialized_fill_nILb0EE15__uninit_fill_nIP7mglTextjS2_EEvT_T0_RKT1_
.text$_ZNSt22__uninitialized_fill_nILb0EE15__uninit_fill_nIP8mglGlyphjS2_EEvT_T0_RKT1_
.text$_ZNSt3mapIdSt4listI11PRCtesslineSaIS1_EESt4lessIdESaISt4pairIKdS3_EEEixERS7_
.text$_ZNSt3mapIjSt5dequeIjSaIjEESt4lessIjESaISt4pairIKjS2_EEEixERS6_
.text$_ZNSt4listI8mglPointSaIS0_EEaSERKS2_
.text$_ZNSt5dequeI11ObjTriangleSaIS0_EE16_M_push_back_auxERKS0_
.text$_ZNSt5dequeI11ObjTriangleSaIS0_EE9push_backERKS0_
.text$_ZNSt5dequeI11PRCRgbColorSaIS0_EE16_M_push_back_auxERKS0_
.text$_ZNSt5dequeI18PRCSingleAttributeSaIS0_EE16_M_push_back_auxERKS0_
.text$_ZNSt5dequeI18PRCSingleAttributeSaIS0_EE19_M_destroy_data_auxESt15_Deque_iteratorIS0_RS0_PS0_ES6_
.text$_ZNSt5dequeI7ObjLineSaIS0_EE16_M_push_back_auxERKS0_
.text$_ZNSt5dequeI8PRCgroupSaIS0_EE16_M_push_back_auxERKS0_
.text$_ZNSt5dequeI8PRCgroupSaIS0_EED1Ev
.text$_ZNSt5dequeIP10PRCPictureSaIS1_EE16_M_push_back_auxERKS1_
.text$_ZNSt5dequeIP11PRCGraphicsSaIS1_EE17_M_reallocate_mapEjb
.text$_ZNSt5dequeIP11PRCMaterialSaIS1_EE17_M_reallocate_mapEjb
.text$_ZNSt5dequeIP14PRCTopoContextSaIS1_EE16_M_push_back_auxERKS1_
.text$_ZNSt5dequeIP17PRCCompressedFaceSaIS1_EE9push_backERKS1_
.text$_ZNSt5dequeIP19PRCCoordinateSystemSaIS1_EE16_M_push_back_auxERKS1_
.text$_ZNSt5dequeIP19PRCUncompressedFileSaIS1_EE16_M_push_back_auxERKS1_
.text$_ZNSt5dequeIP20PRCTextureDefinitionSaIS1_EE16_M_push_back_auxERKS1_
.text$_ZNSt5dequeIP7PRCBodySaIS1_EE17_M_reallocate_mapEjb
.text$_ZNSt5dequeIP7PRCTessSaIS1_EE16_M_push_back_auxERKS1_
.text$_ZNSt5dequeIP8PRCStyleSaIS1_EE16_M_push_back_auxERKS1_
.text$_ZNSt6vectorI10mglDrawDatSaIS0_EE13_M_insert_auxEN9__gnu_cxx17__normal_iteratorIPS0_S2_EERKS0_
.text$_ZNSt6vectorI10mglDrawDatSaIS0_EE5eraseEN9__gnu_cxx17__normal_iteratorIPS0_S2_EE
.text$_ZNSt6vectorI10mglFnStackSaIS0_EE13_M_insert_auxEN9__gnu_cxx17__normal_iteratorIPS0_S2_EERKS0_
.text$_ZNSt6vectorI10mglFnStackSaIS0_EED1Ev
.text$_ZNSt6vectorI10mglSegmentSaIS0_EE13_M_insert_auxEN9__gnu_cxx17__normal_iteratorIPS0_S2_EERKS0_
.text$_ZNSt6vectorI10mglSegmentSaIS0_EE9push_backERKS0_
.text$_ZNSt6vectorI10mglSegmentSaIS0_EED1Ev
.text$_ZNSt6vectorI10mglTextureSaIS0_EE13_M_insert_auxEN9__gnu_cxx17__normal_iteratorIPS0_S2_EERKS0_
.text$_ZNSt6vectorI10mglTextureSaIS0_EE7reserveEj
.text$_ZNSt6vectorI10mglTextureSaIS0_EEaSERKS2_
.text$_ZNSt6vectorI10mglTextureSaIS0_EED1Ev
.text$_ZNSt6vectorI11PRCcompfaceSaIS0_EE13_M_insert_auxEN9__gnu_cxx17__normal_iteratorIPS0_S2_EERKS0_
.text$_ZNSt6vectorI11PRCtessquadSaIS0_EE13_M_insert_auxEN9__gnu_cxx17__normal_iteratorIPS0_S2_EERKS0_
.text$_ZNSt6vectorI11prctriangleSaIS0_EE13_M_insert_auxEN9__gnu_cxx17__normal_iteratorIPS0_S2_EERKS0_
.text$_ZNSt6vectorI11prctriangleSaIS0_EE9push_backERKS0_
.text$_ZNSt6vectorI11PRCVector3dSaIS0_EE13_M_insert_auxEN9__gnu_cxx17__normal_iteratorIPS0_S2_EERKS0_
.text$_ZNSt6vectorI11PRCVector3dSaIS0_EE14_M_fill_insertEN9__gnu_cxx17__normal_iteratorIPS0_S2_EEjRKS0_
.text$_ZNSt6vectorI11PRCVector3dSaIS0_EE7reserveEj
.text$_ZNSt6vectorI11PRCVector3dSaIS0_EEaSERKS2_
.text$_ZNSt6vectorI13mglGlyphDescrSaIS0_EE13_M_insert_auxEN9__gnu_cxx17__normal_iteratorIPS0_S2_EERKS0_
.text$_ZNSt6vectorI13mglGlyphDescrSaIS0_EE14_M_fill_insertEN9__gnu_cxx17__normal_iteratorIPS0_S2_EEjRKS0_
.text$_ZNSt6vectorI13mglGlyphDescrSaIS0_EE15_M_range_insertIN9__gnu_cxx17__normal_iteratorIPS0_S2_EEEEvS7_T_S8_St20forward_iterator_tag
.text$_ZNSt6vectorI13mglGlyphDescrSaIS0_EE7reserveEj
.text$_ZNSt6vectorI13mglGlyphDescrSaIS0_EEaSERKS2_
.text$_ZNSt6vectorI15PRCControlPointSaIS0_EE14_M_fill_insertEN9__gnu_cxx17__normal_iteratorIPS0_S2_EEjRKS0_
.text$_ZNSt6vectorI16PRCtessrectangleSaIS0_EE13_M_insert_auxEN9__gnu_cxx17__normal_iteratorIPS0_S2_EERKS0_
.text$_ZNSt6vectorI19PRCFontKeysSameFontSaIS0_EED1Ev
.text$_ZNSt6vectorI3ShxSaIS0_EE13_M_insert_auxEN9__gnu_cxx17__normal_iteratorIPS0_S2_EERKS0_
.text$_ZNSt6vectorI3ShxSaIS0_EE5eraseEN9__gnu_cxx17__normal_iteratorIPS0_S2_EE
.text$_ZNSt6vectorI3ShxSaIS0_EE6insertEN9__gnu_cxx17__normal_iteratorIPS0_S2_EERKS0_
.text$_ZNSt6vectorI5DupexSaIS0_EE13_M_insert_auxEN9__gnu_cxx17__normal_iteratorIPS0_S2_EERKS0_
.text$_ZNSt6vectorI5TriadSaIS0_EE13_M_insert_auxEN9__gnu_cxx17__normal_iteratorIPS0_S2_EERKS0_
.text$_ZNSt6vectorI7mglFuncSaIS0_EE13_M_insert_auxEN9__gnu_cxx17__normal_iteratorIPS0_S2_EERKS0_
.text$_ZNSt6vectorI7mglFuncSaIS0_EE5clearEv
.text$_ZNSt6vectorI7mglFuncSaIS0_EED1Ev
.text$_ZNSt6vectorI7mglTextSaIS0_EE13_M_insert_auxEN9__gnu_cxx17__normal_iteratorIPS0_S2_EERKS0_
.text$_ZNSt6vectorI7mglTextSaIS0_EE14_M_fill_insertEN9__gnu_cxx17__normal_iteratorIPS0_S2_EEjRKS0_
.text$_ZNSt6vectorI7mglTextSaIS0_EEaSERKS2_
.text$_ZNSt6vectorI7mglTextSaIS0_EED1Ev
.text$_ZNSt6vectorI7PRCfaceSaIS0_EE13_M_insert_auxEN9__gnu_cxx17__normal_iteratorIPS0_S2_EERKS0_
.text$_ZNSt6vectorI7PRCwireSaIS0_EE13_M_insert_auxEN9__gnu_cxx17__normal_iteratorIPS0_S2_EERKS0_
.text$_ZNSt6vectorI8mglBlockSaIS0_EE13_M_insert_auxEN9__gnu_cxx17__normal_iteratorIPS0_S2_EERKS0_
.text$_ZNSt6vectorI8mglBlockSaIS0_EE14_M_fill_insertEN9__gnu_cxx17__normal_iteratorIPS0_S2_EEjRKS0_
.text$_ZNSt6vectorI8mglBlockSaIS0_EEaSERKS2_
.text$_ZNSt6vectorI8mglGlyphSaIS0_EE13_M_insert_auxEN9__gnu_cxx17__normal_iteratorIPS0_S2_EERKS0_
.text$_ZNSt6vectorI8mglGlyphSaIS0_EE14_M_fill_insertEN9__gnu_cxx17__normal_iteratorIPS0_S2_EEjRKS0_
.text$_ZNSt6vectorI8mglGlyphSaIS0_EE7reserveEj
.text$_ZNSt6vectorI8mglGlyphSaIS0_EEaSERKS2_
.text$_ZNSt6vectorI8mglGlyphSaIS0_EED1Ev
.text$_ZNSt6vectorI8mglGroupSaIS0_EE13_M_insert_auxEN9__gnu_cxx17__normal_iteratorIPS0_S2_EERKS0_
.text$_ZNSt6vectorI8mglGroupSaIS0_EED1Ev
.text$_ZNSt6vectorI8mglPointSaIS0_EE13_M_insert_auxEN9__gnu_cxx17__normal_iteratorIPS0_S2_EERKS0_
.text$_ZNSt6vectorI8mglPointSaIS0_EE7reserveEj
.text$_ZNSt6vectorI8mglPointSaIS0_EE9push_backERKS0_
.text$_ZNSt6vectorI8mglPointSaIS0_EEaSERKS2_
.text$_ZNSt6vectorI8mglRKdatSaIS0_EE13_M_insert_auxEN9__gnu_cxx17__normal_iteratorIPS0_S2_EERKS0_
.text$_ZNSt6vectorI9mglMatrixSaIS0_EE13_M_insert_auxEN9__gnu_cxx17__normal_iteratorIPS0_S2_EERKS0_
.text$_ZNSt6vectorIdSaIdEE13_M_insert_auxEN9__gnu_cxx17__normal_iteratorIPdS1_EERKd
.text$_ZNSt6vectorIdSaIdEE14_M_fill_insertEN9__gnu_cxx17__normal_iteratorIPdS1_EEjRKd
.text$_ZNSt6vectorIdSaIdEE15_M_range_insertIPKdEEvN9__gnu_cxx17__normal_iteratorIPdS1_EET_S9_St20forward_iterator_tag
.text$_ZNSt6vectorIdSaIdEE7reserveEj
.text$_ZNSt6vectorIdSaIdEE9push_backERKd
.text$_ZNSt6vectorIdSaIdEEaSERKS1_
.text$_ZNSt6vectorIhSaIhEE13_M_insert_auxEN9__gnu_cxx17__normal_iteratorIPhS1_EERKh
.text$_ZNSt6vectorIhSaIhEE7reserveEj
.text$_ZNSt6vectorIhSaIhEE9push_backERKh
.text$_ZNSt6vectorIjSaIjEE13_M_insert_auxEN9__gnu_cxx17__normal_iteratorIPjS1_EERKj
.text$_ZNSt6vectorIjSaIjEE7reserveEj
.text$_ZNSt6vectorIjSaIjEE9push_backERKj
.text$_ZNSt6vectorIlSaIlEE13_M_insert_auxEN9__gnu_cxx17__normal_iteratorIPlS1_EERKl
.text$_ZNSt6vectorIlSaIlEE14_M_fill_insertEN9__gnu_cxx17__normal_iteratorIPlS1_EEjRKl
.text$_ZNSt6vectorIlSaIlEE6insertEN9__gnu_cxx17__normal_iteratorIPlS1_EERKl
.text$_ZNSt6vectorIlSaIlEE9push_backERKl
.text$_ZNSt6vectorIlSaIlEEaSERKS1_
.text$_ZNSt6vectorIP10lt__handleSaIS1_EE13_M_insert_auxEN9__gnu_cxx17__normal_iteratorIPS1_S3_EERKS1_
.text$_ZNSt6vectorIP11PRCPointSetSaIS1_EE13_M_insert_auxEN9__gnu_cxx17__normal_iteratorIPS1_S3_EERKS1_
.text$_ZNSt6vectorIP11PRCPolyWireSaIS1_EE13_M_insert_auxEN9__gnu_cxx17__normal_iteratorIPS1_S3_EERKS1_
.text$_ZNSt6vectorIP16PRCPolyBrepModelSaIS1_EE13_M_insert_auxEN9__gnu_cxx17__normal_iteratorIPS1_S3_EERKS1_
.text$_ZNSt6vectorIP6mglNumSaIS1_EE13_M_insert_auxEN9__gnu_cxx17__normal_iteratorIPS1_S3_EERKS1_
.text$_ZNSt6vectorIP8mglDataASaIS1_EE13_M_insert_auxEN9__gnu_cxx17__normal_iteratorIPS1_S3_EERKS1_
.text$_ZNSt6vectorIPcSaIS0_EE13_M_insert_auxEN9__gnu_cxx17__normal_iteratorIPS0_S2_EERKS0_
.text$_ZNSt6vectorIPKcSaIS1_EE13_M_insert_auxEN9__gnu_cxx17__normal_iteratorIPS1_S3_EERKS1_
.text$_ZNSt6vectorIS_IdSaIdEESaIS1_EE14_M_fill_insertEN9__gnu_cxx17__normal_iteratorIPS1_S3_EEjRKS1_
.text$_ZNSt6vectorIS_ISt7complexIdESaIS1_EESaIS3_EE14_M_fill_insertEN9__gnu_cxx17__normal_iteratorIPS3_S5_EEjRKS3_
.text$_ZNSt6vectorISbIwSt11char_traitsIwESaIwEESaIS3_EE13_M_insert_auxEN9__gnu_cxx17__normal_iteratorIPS3_S5_EERKS3_
.text$_ZNSt6vectorIsSaIsEE13_M_insert_auxEN9__gnu_cxx17__normal_iteratorIPsS1_EERKs
.text$_ZNSt6vectorISsSaISsEE13_M_insert_auxEN9__gnu_cxx17__normal_iteratorIPSsS1_EERKSs
.text$_ZNSt6vectorISsSaISsEED1Ev
.text$_ZNSt6vectorISt7complexIdESaIS1_EE13_M_insert_auxEN9__gnu_cxx17__normal_iteratorIPS1_S3_EERKS1_
.text$_ZNSt6vectorISt7complexIdESaIS1_EEaSERKS3_
.text$_ZNSt6vectorIwSaIwEE13_M_insert_auxEN9__gnu_cxx17__normal_iteratorIPwS1_EERKw
.text$_ZNSt8_Rb_treeI10RGBAColourSt4pairIKS0_jESt10_Select1stIS3_ESt4lessIS0_ESaIS3_EE16_M_insert_uniqueERKS3_
.text$_ZNSt8_Rb_treeI10RGBAColourSt4pairIKS0_jESt10_Select1stIS3_ESt4lessIS0_ESaIS3_EE8_M_eraseEPSt13_Rb_tree_nodeIS3_E
.text$_ZNSt8_Rb_treeI11PRCmaterialSt4pairIKS0_jESt10_Select1stIS3_ESt4lessIS0_ESaIS3_EE16_M_insert_uniqueERKS3_
.text$_ZNSt8_Rb_treeI11PRCmaterialSt4pairIKS0_jESt10_Select1stIS3_ESt4lessIS0_ESaIS3_EE8_M_eraseEPSt13_Rb_tree_nodeIS3_E
.text$_ZNSt8_Rb_treeI11PRCRgbColorSt4pairIKS0_jESt10_Select1stIS3_ESt4lessIS0_ESaIS3_EE16_M_insert_uniqueERKS3_
.text$_ZNSt8_Rb_treeI11PRCRgbColorSt4pairIKS0_jESt10_Select1stIS3_ESt4lessIS0_ESaIS3_EE8_M_eraseEPSt13_Rb_tree_nodeIS3_E
.text$_ZNSt8_Rb_treeI11PRCVector2dSt4pairIKS0_jESt10_Select1stIS3_ESt4lessIS0_ESaIS3_EE16_M_insert_uniqueERKS3_
.text$_ZNSt8_Rb_treeI11PRCVector2dSt4pairIKS0_jESt10_Select1stIS3_ESt4lessIS0_ESaIS3_EE8_M_eraseEPSt13_Rb_tree_nodeIS3_E
.text$_ZNSt8_Rb_treeI11PRCVector3dSt4pairIKS0_jESt10_Select1stIS3_ESt4lessIS0_ESaIS3_EE16_M_insert_uniqueERKS3_
.text$_ZNSt8_Rb_treeI11PRCVector3dSt4pairIKS0_jESt10_Select1stIS3_ESt4lessIS0_ESaIS3_EE4findERS2_
.text$_ZNSt8_Rb_treeI11PRCVector3dSt4pairIKS0_jESt10_Select1stIS3_ESt4lessIS0_ESaIS3_EE8_M_eraseEPSt13_Rb_tree_nodeIS3_E
.text$_ZNSt8_Rb_treeI15RGBAColourWidthSt4pairIKS0_jESt10_Select1stIS3_ESt4lessIS0_ESaIS3_EE16_M_insert_uniqueERKS3_
.text$_ZNSt8_Rb_treeI15RGBAColourWidthSt4pairIKS0_jESt10_Select1stIS3_ESt4lessIS0_ESaIS3_EE8_M_eraseEPSt13_Rb_tree_nodeIS3_E
.text$_ZNSt8_Rb_treeI26PRCGeneralTransformation3dSt4pairIKS0_jESt10_Select1stIS3_ESt4lessIS0_ESaIS3_EE16_M_insert_uniqueERKS3_
.text$_ZNSt8_Rb_treeI26PRCGeneralTransformation3dSt4pairIKS0_jESt10_Select1stIS3_ESt4lessIS0_ESaIS3_EE8_M_eraseEPSt13_Rb_tree_nodeIS3_E
.text$_ZNSt8_Rb_treeI5ObjUVSt4pairIKS0_jESt10_Select1stIS3_ESt4lessIS0_ESaIS3_EE16_M_insert_uniqueERKS3_
.text$_ZNSt8_Rb_treeI5ObjUVSt4pairIKS0_jESt10_Select1stIS3_ESt4lessIS0_ESaIS3_EE8_M_eraseEPSt13_Rb_tree_nodeIS3_E
.text$_ZNSt8_Rb_treeI6ObjXYZSt4pairIKS0_jESt10_Select1stIS3_ESt4lessIS0_ESaIS3_EE16_M_insert_uniqueERKS3_
.text$_ZNSt8_Rb_treeI6ObjXYZSt4pairIKS0_jESt10_Select1stIS3_ESt4lessIS0_ESaIS3_EE8_M_eraseEPSt13_Rb_tree_nodeIS3_E
.text$_ZNSt8_Rb_treeI8mglColorSt4pairIKS0_jESt10_Select1stIS3_E11lt_mglColorSaIS3_EE16_M_insert_uniqueERKS3_
.text$_ZNSt8_Rb_treeI8mglColorSt4pairIKS0_jESt10_Select1stIS3_E11lt_mglColorSaIS3_EE8_M_eraseEPSt13_Rb_tree_nodeIS3_E
.text$_ZNSt8_Rb_treeIdSt4pairIKdSt4listI11PRCtesslineSaIS3_EEESt10_Select1stIS6_ESt4lessIdESaIS6_EE24_M_get_insert_unique_posERS1_
.text$_ZNSt8_Rb_treeIdSt4pairIKdSt4listI11PRCtesslineSaIS3_EEESt10_Select1stIS6_ESt4lessIdESaIS6_EE29_M_get_insert_hint_unique_posESt23_Rb_tree_const_iteratorIS6_ERS1_
.text$_ZNSt8_Rb_treeIdSt4pairIKdSt4listI11PRCtesslineSaIS3_EEESt10_Select1stIS6_ESt4lessIdESaIS6_EE7_M_copyEPKSt13_Rb_tree_nodeIS6_EPSE_
.text$_ZNSt8_Rb_treeIdSt4pairIKdSt4listI11PRCtesslineSaIS3_EEESt10_Select1stIS6_ESt4lessIdESaIS6_EE8_M_eraseEPSt13_Rb_tree_nodeIS6_E
.text$_ZNSt8_Rb_treeIjSt4pairIKjSt5dequeI7ObjLineSaIS3_EEESt10_Select1stIS6_ESt4lessIjESaIS6_EE17_M_insert_unique_ESt23_Rb_tree_const_iteratorIS6_ERKS6_
.text$_ZNSt8_Rb_treeIjSt4pairIKjSt5dequeI7ObjLineSaIS3_EEESt10_Select1stIS6_ESt4lessIjESaIS6_EE24_M_get_insert_unique_posERS1_
.text$_ZNSt8_Rb_treeIjSt4pairIKjSt5dequeI7ObjLineSaIS3_EEESt10_Select1stIS6_ESt4lessIjESaIS6_EE29_M_get_insert_hint_unique_posESt23_Rb_tree_const_iteratorIS6_ERS1_
.text$_ZNSt8_Rb_treeIjSt4pairIKjSt5dequeI7ObjLineSaIS3_EEESt10_Select1stIS6_ESt4lessIjESaIS6_EE8_M_eraseEPSt13_Rb_tree_nodeIS6_E
.text$_ZNSt8_Rb_treeIjSt4pairIKjSt5dequeIjSaIjEEESt10_Select1stIS5_ESt4lessIjESaIS5_EE17_M_insert_unique_ESt23_Rb_tree_const_iteratorIS5_ERKS5_
.text$_ZNSt8_Rb_treeIjSt4pairIKjSt5dequeIjSaIjEEESt10_Select1stIS5_ESt4lessIjESaIS5_EE24_M_get_insert_unique_posERS1_
.text$_ZNSt8_Rb_treeIjSt4pairIKjSt5dequeIjSaIjEEESt10_Select1stIS5_ESt4lessIjESaIS5_EE29_M_get_insert_hint_unique_posESt23_Rb_tree_const_iteratorIS5_ERS1_
.text$_ZNSt8_Rb_treeIjSt4pairIKjSt5dequeIjSaIjEEESt10_Select1stIS5_ESt4lessIjESaIS5_EE8_M_eraseEPSt13_Rb_tree_nodeIS5_E
.text$_ZNSt8_Rb_treeIjSt4pairIKjSt6vectorI11PRCVector3dSaIS3_EEESt10_Select1stIS6_ESt4lessIjESaIS6_EE24_M_get_insert_unique_posERS1_
.text$_ZNSt8_Rb_treeIjSt4pairIKjSt6vectorI11PRCVector3dSaIS3_EEESt10_Select1stIS6_ESt4lessIjESaIS6_EE29_M_get_insert_hint_unique_posESt23_Rb_tree_const_iteratorIS6_ERS1_
.text$_ZNSt8_Rb_treeIjSt4pairIKjSt6vectorI11PRCVector3dSaIS3_EEESt10_Select1stIS6_ESt4lessIjESaIS6_EE7_M_copyEPKSt13_Rb_tree_nodeIS6_EPSE_
.text$_ZNSt8_Rb_treeIjSt4pairIKjSt6vectorI11PRCVector3dSaIS3_EEESt10_Select1stIS6_ESt4lessIjESaIS6_EE8_M_eraseEPSt13_Rb_tree_nodeIS6_E
.text$_ZNSt8_Rb_treeIllSt9_IdentityIlESt4lessIlESaIlEE10_M_insert_EPSt18_Rb_tree_node_baseS7_RKl
.text$_ZNSt8_Rb_treeIllSt9_IdentityIlESt4lessIlESaIlEE16_M_insert_uniqueERKl
.text$_ZNSt8_Rb_treeIllSt9_IdentityIlESt4lessIlESaIlEE24_M_get_insert_unique_posERKl
.text$_ZNSt8_Rb_treeIllSt9_IdentityIlESt4lessIlESaIlEE29_M_get_insert_hint_unique_posESt23_Rb_tree_const_iteratorIlERKl
.text$_ZNSt8_Rb_treeIllSt9_IdentityIlESt4lessIlESaIlEE8_M_eraseEPSt13_Rb_tree_nodeIlE
.text$_ZNSt8_Rb_treeIP10PRCPictureSt4pairIKS1_jESt10_Select1stIS4_E13PRCPictureCmpSaIS4_EE16_M_insert_uniqueERKS4_
.text$_ZNSt8_Rb_treeIP10PRCPictureSt4pairIKS1_jESt10_Select1stIS4_E13PRCPictureCmpSaIS4_EE8_M_eraseEPSt13_Rb_tree_nodeIS4_E
.text$_ZNSt8_Rb_treeIP18PRCMaterialGenericSt4pairIKS1_jESt10_Select1stIS4_E21PRCMaterialGenericCmpSaIS4_EE16_M_insert_uniqueERKS4_
.text$_ZNSt8_Rb_treeIP18PRCMaterialGenericSt4pairIKS1_jESt10_Select1stIS4_E21PRCMaterialGenericCmpSaIS4_EE8_M_eraseEPSt13_Rb_tree_nodeIS4_E
.text$_ZNSt8_Rb_treeIP19PRCUncompressedFileSt4pairIKS1_jESt10_Select1stIS4_E22PRCUncompressedFileCmpSaIS4_EE16_M_insert_uniqueERKS4_
.text$_ZNSt8_Rb_treeIP19PRCUncompressedFileSt4pairIKS1_jESt10_Select1stIS4_E22PRCUncompressedFileCmpSaIS4_EE24_M_get_insert_unique_posERS3_
.text$_ZNSt8_Rb_treeIP19PRCUncompressedFileSt4pairIKS1_jESt10_Select1stIS4_E22PRCUncompressedFileCmpSaIS4_EE8_M_eraseEPSt13_Rb_tree_nodeIS4_E
.text$_ZNSt8_Rb_treeIP20PRCTextureDefinitionSt4pairIKS1_jESt10_Select1stIS4_E23PRCTextureDefinitionCmpSaIS4_EE16_M_insert_uniqueERKS4_
.text$_ZNSt8_Rb_treeIP20PRCTextureDefinitionSt4pairIKS1_jESt10_Select1stIS4_E23PRCTextureDefinitionCmpSaIS4_EE8_M_eraseEPSt13_Rb_tree_nodeIS4_E
.text$_ZNSt8_Rb_treeIP21PRCTextureApplicationSt4pairIKS1_jESt10_Select1stIS4_E24PRCTextureApplicationCmpSaIS4_EE16_M_insert_uniqueERKS4_
.text$_ZNSt8_Rb_treeIP21PRCTextureApplicationSt4pairIKS1_jESt10_Select1stIS4_E24PRCTextureApplicationCmpSaIS4_EE8_M_eraseEPSt13_Rb_tree_nodeIS4_E
.text$_ZNSt8_Rb_treeIP8PRCStyleSt4pairIKS1_jESt10_Select1stIS4_E11PRCStyleCmpSaIS4_EE16_M_insert_uniqueERKS4_
.text$_ZNSt8_Rb_treeIP8PRCStyleSt4pairIKS1_jESt10_Select1stIS4_E11PRCStyleCmpSaIS4_EE8_M_eraseEPSt13_Rb_tree_nodeIS4_E
.text$_ZplRK7QStringPKc
.text$_ZplRK7QStringS1_
.text$_ZSt11__push_heapIN9__gnu_cxx17__normal_iteratorIP3ShxSt6vectorIS2_SaIS2_EEEEiS2_EvT_T0_S9_T1_
.text$_ZSt13__adjust_heapIN9__gnu_cxx17__normal_iteratorIP13mglGlyphDescrSt6vectorIS2_SaIS2_EEEEiS2_EvT_T0_S9_T1_
.text$_ZSt13__adjust_heapIN9__gnu_cxx17__normal_iteratorIP3ShxSt6vectorIS2_SaIS2_EEEEiS2_EvT_T0_S9_T1_
.text$_ZSt13__adjust_heapIN9__gnu_cxx17__normal_iteratorIP5DupexSt6vectorIS2_SaIS2_EEEEiS2_EvT_T0_S9_T1_
.text$_ZSt13__adjust_heapIN9__gnu_cxx17__normal_iteratorIPlSt6vectorIlSaIlEEEEilEvT_T0_S8_T1_
.text$_ZSt13__heap_selectIN9__gnu_cxx17__normal_iteratorIP13mglGlyphDescrSt6vectorIS2_SaIS2_EEEEEvT_S8_S8_
.text$_ZSt13__heap_selectIN9__gnu_cxx17__normal_iteratorIP5DupexSt6vectorIS2_SaIS2_EEEEEvT_S8_S8_
.text$_ZSt14__complex_sqrtIdESt7complexIT_ERKS2_
.text$_ZSt16__insertion_sortIN9__gnu_cxx17__normal_iteratorIP13mglGlyphDescrSt6vectorIS2_SaIS2_EEEEEvT_S8_
.text$_ZSt16__insertion_sortIN9__gnu_cxx17__normal_iteratorIP3ShxSt6vectorIS2_SaIS2_EEEEEvT_S8_
.text$_ZSt16__insertion_sortIN9__gnu_cxx17__normal_iteratorIP5DupexSt6vectorIS2_SaIS2_EEEEEvT_S8_
.text$_ZSt16__insertion_sortIN9__gnu_cxx17__normal_iteratorIPlSt6vectorIlSaIlEEEEEvT_S7_
.text$_ZSt16__introsort_loopIN9__gnu_cxx17__normal_iteratorIP13mglGlyphDescrSt6vectorIS2_SaIS2_EEEEiEvT_S8_T0_
.text$_ZSt16__introsort_loopIN9__gnu_cxx17__normal_iteratorIP3ShxSt6vectorIS2_SaIS2_EEEEiEvT_S8_T0_
.text$_ZSt16__introsort_loopIN9__gnu_cxx17__normal_iteratorIP5DupexSt6vectorIS2_SaIS2_EEEEiEvT_S8_T0_
.text$_ZSt16__introsort_loopIN9__gnu_cxx17__normal_iteratorIPlSt6vectorIlSaIlEEEEiEvT_S7_T0_
.text$_ZSt19__move_median_firstIN9__gnu_cxx17__normal_iteratorIP5DupexSt6vectorIS2_SaIS2_EEEEEvT_S8_S8_
.text$_ZSt22__complex_pow_unsignedIdESt7complexIT_ES2_j
.text$_ZSt25__unguarded_linear_insertIN9__gnu_cxx17__normal_iteratorIP13mglGlyphDescrSt6vectorIS2_SaIS2_EEEEEvT_
.text$_ZSt25__unguarded_linear_insertIN9__gnu_cxx17__normal_iteratorIP3ShxSt6vectorIS2_SaIS2_EEEEEvT_
.text$_ZSt25__unguarded_linear_insertIN9__gnu_cxx17__normal_iteratorIP5DupexSt6vectorIS2_SaIS2_EEEEEvT_
.text$_ZSt8_DestroyISt15_Deque_iteratorI18PRCSingleAttributeRS1_PS1_EEvT_S5_
.text$_ZSt8_DestroyISt15_Deque_iteratorI8PRCgroupRS1_PS1_EEvT_S5_
.text$_ZSt9make_heapIN9__gnu_cxx17__normal_iteratorIP3ShxSt6vectorIS2_SaIS2_EEEEEvT_S8_
.text$_ZSteqIcEN9__gnu_cxx11__enable_ifIXsrSt9__is_charIT_E7__valueEbE6__typeERKSbIS3_St11char_traitsIS3_ESaIS3_EESC_
.text$_ZStplIcSt11char_traitsIcESaIcEESbIT_T0_T1_ERKS6_PKS3_
.text$_ZStplIcSt11char_traitsIcESaIcEESbIT_T0_T1_ERKS6_S8_
.text$_ZStplIwSt11char_traitsIwESaIwEESbIT_T0_T1_EPKS3_RKS6_
__GLOBAL__sub_I__Z10mgl_ask_qtPKwPw
__GLOBAL__sub_I__Z12circle_cent2ddddddRdS_S_
__GLOBAL__sub_I__Z12fill_slice_xP7mglBasedPK8mglDataAR8mglDataVS5_S5_R7mglData
__GLOBAL__sub_I__Z12mgl_get_dashtdc
__GLOBAL__sub_I__Z13mgl_mesh_plotP7mglBasePllli
__GLOBAL__sub_I__Z13mgl_pnga_savePKciiPPh
__GLOBAL__sub_I__Z14mglFormulaCalcPKcRKSt6vectorIP8mglDataASaIS3_EE
__GLOBAL__sub_I__Z14mgls_addlegendP8mglGraphlP6mglArgPKcS4_
__GLOBAL__sub_I__Z15mglStartThreadTPFPvS_ElS_PdPKvPS_PKlS4_S4_
__GLOBAL__sub_I__Z16mgl_operator_explPSt7complexIdES1_S1_
__GLOBAL__sub_I__Z16mgl_string_curveP7mglBasellPKlS2_PKwPKcd
__GLOBAL__sub_I__Z3CLZj
__GLOBAL__sub_I__ZN11mglFormulaC5ErrorE
__GLOBAL__sub_I__ZN12mglCanvasWndC2Ev
__GLOBAL__sub_I__ZN12PRCbitStream8compressEv
__GLOBAL__sub_I__ZN16PRCFileStructure29serializeFileStructureGlobalsER12PRCbitStream
__GLOBAL__sub_I__ZN7QMathGL18qt_static_metacallEP7QObjectN11QMetaObject4CallEiPPv
__GLOBAL__sub_I__ZN9mglCanvas7SetSizeEiib
__GLOBAL__sub_I__ZNK10mglTexture10GetRGBAOBJEPh
__GLOBAL__sub_I__ZNK10mglTexture10GetRGBAPRCEPh
__GLOBAL__sub_I__ZNK10mglTexture7GetRGBAEPh
__gnu_cxx::__enable_if<std::__is_char<char>::__value, bool>::__type std::operator==<char>(std::basic_string<char, std::char_traits<char>, std::allocator<char> > const&, std::basic_string<char, std::char_traits<char>, std::allocator<char> > const&)
__gnu_cxx::__exchange_and_add_dispatch(int*, int) [clone .constprop.1374]
__gnu_cxx::__exchange_and_add_dispatch(int*, int) [clone .part.0] [clone .constprop.105]
__gnu_cxx::__exchange_and_add_dispatch(int*, int) [clone .part.0] [clone .constprop.169]
__gnu_cxx::__exchange_and_add_dispatch(int*, int) [clone .part.0] [clone .constprop.32]
__gnu_cxx::__exchange_and_add_dispatch(int*, int) [clone .part.1] [clone .constprop.114]
__gnu_cxx::__exchange_and_add_dispatch(int*, int) [clone .part.1] [clone .constprop.1182]
__gnu_cxx::__exchange_and_add_dispatch(int*, int) [clone .part.1] [clone .constprop.532]
__gnu_cxx::__exchange_and_add_dispatch(int*, int) [clone .part.1] [clone .constprop.57]
__gnu_cxx::__exchange_and_add_dispatch(int*, int) [clone .part.1] [clone .constprop.62]
__gnu_cxx::__exchange_and_add_dispatch(int*, int) [clone .part.13] [clone .constprop.172]
__gnu_cxx::__exchange_and_add_dispatch(int*, int) [clone .part.15] [clone .constprop.62]
__gnu_cxx::__exchange_and_add_dispatch(int*, int) [clone .part.2] [clone .constprop.73]
__gnu_cxx::__exchange_and_add_dispatch(int*, int) [clone .part.23] [clone .constprop.258]
__gnu_cxx::__exchange_and_add_dispatch(int*, int) [clone .part.29] [clone .constprop.173]
__gnu_cxx::__exchange_and_add_dispatch(int*, int) [clone .part.3] [clone .constprop.316]
__gnu_cxx::__exchange_and_add_dispatch(int*, int) [clone .part.3] [clone .constprop.74]
__gnu_cxx::__exchange_and_add_dispatch(int*, int) [clone .part.34] [clone .constprop.73]
__gnu_cxx::__exchange_and_add_dispatch(int*, int) [clone .part.38] [clone .constprop.219]
__gnu_cxx::__exchange_and_add_dispatch(int*, int) [clone .part.4] [clone .constprop.153]
__gnu_cxx::__exchange_and_add_dispatch(int*, int) [clone .part.4] [clone .constprop.43]
__gnu_cxx::__exchange_and_add_dispatch(int*, int) [clone .part.40] [clone .constprop.75]
__gnu_cxx::__exchange_and_add_dispatch(int*, int) [clone .part.42] [clone .constprop.103]
__gnu_cxx::__exchange_and_add_dispatch(int*, int) [clone .part.44] [clone .constprop.105]
__gnu_cxx::__exchange_and_add_dispatch(int*, int) [clone .part.44] [clone .constprop.99]
__gnu_cxx::__exchange_and_add_dispatch(int*, int) [clone .part.7] [clone .constprop.64]
__gnu_cxx::__exchange_and_add_dispatch(int*, int) [clone .part.70] [clone .constprop.106]
__gnu_cxx::__exchange_and_add_dispatch(int*, int) [clone .part.9] [clone .constprop.40]
__gnu_cxx::__exchange_and_add_dispatch(int*, int) [clone .part.93] [clone .constprop.125]
__imp___Z10mgl_ask_qtPKwPw
__imp___Z10mgl_isbothPK8mglDataAS1_S1_S1_
__imp___Z10mglLinearCPKSt7complexIdElllddd
__imp___Z10mglSpline3PKdllldddPdS1_S1_
__imp___Z11mgl_isnbothPK8mglDataAS1_S1_S1_
__imp___Z11mglGetStylePKcPiS1_
__imp___Z11mglMakeMenuP11QMainWindowP7QMathGLRP8QSpinBoxS5_
__imp___Z11mglSpline3CPKSt7complexIdEllldddPS0_S3_S3_
__imp___Z11mglSpline3sPKdlllddd
__imp___Z12mgl_add_fileRlS_S_RPdP7mglDatab
__imp___Z12mgl_ask_getsPKwPw
__imp___Z12mgl_cont_genP7mglBasedPK8mglDataAS3_S3_S3_dil
__imp___Z12mgl_x3d_mdefP7mglBasePvb
__imp___Z12mgl_x3d_primRK7mglPrimRK6mglPntPKlPvbd
__imp___Z12mglSpline3CsPKSt7complexIdElllddd
__imp___Z13mgl_axial_genP7mglBasedPK8mglDataAS3_S3_dcli
__imp___Z13mgl_contf_genP7mglBaseddPK8mglDataAS3_S3_S3_dl
__imp___Z13mgl_contv_genP7mglBaseddPK8mglDataAS3_S3_S3_dl
__imp___Z13mgl_difr_gridPSt7complexIdEiiS0_iS1_i
__imp___Z13mgl_draw_calcPv
__imp___Z13mgl_get_curvsP7mglBaseSt6vectorI10mglSegmentSaIS2_EE
__imp___Z13mgl_get_linesdPK8mglDataAS1_S1_S1_l
__imp___Z13mgl_write_x3dP7mglBasePKcS2_
__imp___Z14mgl_check_dim0P7mglBasePK8mglDataAS3_S3_S3_PKcb
__imp___Z14mgl_check_dim1P7mglBasePK8mglDataAS3_S3_S3_PKcb
__imp___Z14mgl_check_dim2P7mglBasePK8mglDataAS3_S3_S3_PKcb
__imp___Z14mgl_check_dim3P7mglBasebPK8mglDataAS3_S3_S3_S3_PKc
__imp___Z14mgl_check_trigP7mglBasePK8mglDataAS3_S3_S3_S3_PKci
__imp___Z14mgl_check_vec3P7mglBasePK8mglDataAS3_S3_S3_S3_S3_PKc
__imp___Z14mgl_difr_axialPSt7complexIdEiiS0_iS1_id
__imp___Z14mgl_subplot_d_PjPiS0_S0_PKcPdS3_i
__imp___Z14mgl_surf3_plotP7mglBasellPlS1_S1_S1_S1_St6vectorI8mglPointSaIS3_EEi
__imp___Z14mgl_write_x3d_PjPKcS1_ii
__imp___Z14mglStartThreadPFPvS_EPFvP10mglThreadDPdElS4_PKdS8_PKlPKvS8_S8_PKc
__imp___Z15mgl_data_pulse_PjPKci
__imp___Z15mglStartThreadCPFPvS_EPFvP10mglThreadCPSt7complexIdEElS6_PKS5_SA_PKlPKvSA_SA_PKc
__imp___Z15mglStartThreadTPFPvS_ElS_PdPKvPS_PKlS4_S4_
__imp___Z15mglStartThreadVPFPvS_ElPdPKvS4_PKlS4_PKd
__imp___Z15mglStartThreadVPFPvS_ElPSt7complexIdEPKvS6_PKlS6_PKd
__imp___Z16mgl_obj_prim_oldP7mglBaseRK7mglPrimRK6mglPntP6_iobufd
__imp___Z17mgl_adjust_ticks_PjPKcS1_ii
__imp___Z17mgl_difr_grid_oldPSt7complexIdEiiS0_iS1_S1_i
__imp___Z17mgl_internal_codejRKSt6vectorI13mglGlyphDescrSaIS0_EE
__imp___Z17mgl_makemenu_fltkP8Fl_Menu_P10Fl_MGLView
__imp___Z17mgl_obj_glyph_oldP7mglBaseRK7mglPrimRK6mglPntP6_iobuf
__imp___Z18mgl_data_read_hdf4P7mglDataPKcS2_
__imp___Z18mgl_data_to_stringPK8mglDataAl
__imp___Z18mgl_difr_axial_oldPSt7complexIdEiiS0_iS1_S1_id
__imp___Z18mgl_gsplinec_init_PjS_
__imp___Z19mgl_check_tex_tablev
__imp___Z19mgl_create_cpp_fontP7mglBasePKw
__imp___Z19mgl_datac_to_stringPK8mglDataAl
__imp___Z8mgl_dropP7mglBase8mglPointS1_dddd
__imp___Z8mgl_ftoadPKc
__imp___Z9mglLinearPKdlllddd
__imp___ZeqRK7QStringS1_
__imp___ZN10Fl_MGLView10exec_pauseEv
__imp___ZN10Fl_MGLView11setoff_zoomEv
__imp___ZN10Fl_MGLView11toggle_gridEv
__imp___ZN10Fl_MGLView11toggle_zoomEv
__imp___ZN10Fl_MGLView12toggle_alphaEv
__imp___ZN10Fl_MGLView12toggle_lightEv
__imp___ZN10Fl_MGLView12toggle_pauseEv
__imp___ZN10Fl_MGLView12toggle_sshowEv
__imp___ZN10Fl_MGLView13setoff_rotateEv
__imp___ZN10Fl_MGLView13toggle_rotateEv
__imp___ZN10Fl_MGLView6adjustEv
__imp___ZN10Fl_MGLView6setoffERiP9Fl_ButtonPKc
__imp___ZN10Fl_MGLView6toggleERiP9Fl_ButtonPKc
__imp___ZN10Fl_MGLView6updateEv
__imp___ZN10Fl_MGLViewC1EiiiiPKc
__imp___ZN10Fl_MGLViewC2EiiiiPKc
__imp___ZN10Fl_MGLViewD0Ev
__imp___ZN10Fl_MGLViewD1Ev
__imp___ZN10Fl_MGLViewD2Ev
__imp___ZN10mglDrawDataSERKS_
__imp___ZN10mglDrawDatC1ERKS_
__imp___ZN10mglDrawDatC1Ev
__imp___ZN10mglDrawReg3setEP9mglCanvasiii
__imp___ZN10mglDrawRegC1ERKS_
__imp___ZN10mglFormula5ErrorE
__imp___ZN10mglFormulaC1EPKc
__imp___ZN10mglFormulaC2EPKc
__imp___ZN10mglFormulaD1Ev
__imp___ZN10mglFormulaD2Ev
__imp___ZN10mglTexture3SetEPKcid
__imp___ZN10mglTextureaSERKS_
__imp___ZN10mglTextureC1EPKcid
__imp___ZN10mglTextureC1ERKS_
__imp___ZN10mglTextureC1Ev
__imp___ZN10QArrayData10deallocateEPS_jj
__imp___ZN10QArrayData11shared_nullE
__imp___ZN10QClipboard7setTextERK7QStringNS_4ModeE
__imp___ZN10QClipboard9setPixmapERK7QPixmapNS_4ModeE
__imp___ZN11mglCanvasGL10LightScaleEPK9mglMatrix
__imp___ZN11mglCanvasGL10SetQualityEi
__imp___ZN11mglCanvasGL11GetRGBLinesERlS0_RPhb
__imp___ZN11mglCanvasGL3ClfE8mglColor
__imp___ZN11mglCanvasGL3ClfEPKc
__imp___ZN11mglCanvasGL3FogEdd
__imp___ZN11mglCanvasGL4ViewEddd
__imp___ZN11mglCanvasGL4ZoomEdddd
__imp___ZN11mglCanvasGL5AlphaEb
__imp___ZN11mglCanvasGL5LightEb
__imp___ZN11mglCanvasGL5LightEib
__imp___ZN11mglCanvasGL6FinishEv
__imp___ZN11mglCanvasGL6gl_clfE8mglColor
__imp___ZN11mglCanvasGL7SetSizeEiib
__imp___ZN11mglCanvasGL8AddLightEi8mglPointS0_cdd
__imp___ZN11mglCanvasGL8pnt_drawERK6mglPntPK10mglDrawReg
__imp___ZN11mglCanvasGL9line_drawEll
__imp___ZN11mglCanvasGL9line_drawERK6mglPntS2_PK10mglDrawReg
__imp___ZN11mglCanvasGL9mark_drawERK6mglPntcdP10mglDrawReg
__imp___ZN11mglCanvasGL9quad_drawEllll
__imp___ZN11mglCanvasGL9quad_drawERK6mglPntS2_S2_S2_PK10mglDrawReg
__imp___ZN11mglCanvasGL9trig_drawElll
__imp___ZN11mglCanvasGL9trig_drawERK6mglPntS2_S2_bPK10mglDrawReg
__imp___ZN11mglCanvasGLC1Ev
__imp___ZN11mglCanvasGLC2Ev
__imp___ZN11mglCanvasGLD0Ev
__imp___ZN11mglCanvasGLD1Ev
__imp___ZN11mglCanvasGLD2Ev
__imp___ZN11mglFormulaC5ErrorE
__imp___ZN11mglFormulaCC1EPKc
__imp___ZN11mglFormulaCC2EPKc
__imp___ZN11mglFormulaCD0Ev
__imp___ZN11mglFormulaCD1Ev
__imp___ZN11mglFormulaCD2Ev
__imp___ZN11QMainWindow10addToolBarEN2Qt11ToolBarAreaEP8QToolBar
__imp___ZN11QMainWindow16setCentralWidgetEP7QWidget
__imp___ZN11QMainWindowC1EP7QWidget6QFlagsIN2Qt10WindowTypeEE
__imp___ZN11QMessageBox5aboutEP7QWidgetRK7QStringS4_
__imp___ZN11QMessageBox7aboutQtEP7QWidgetRK7QString
__imp___ZN11QMessageBox8criticalEP7QWidgetRK7QStringS4_iii
__imp___ZN11QMetaObject10ConnectionD1Ev
__imp___ZN11QMetaObject8activateEP7QObjectPKS_iPPv
__imp___ZN11QScrollArea9setWidgetEP7QWidget
__imp___ZN11QScrollAreaC1EP7QWidget
__imp___ZN12mglCanvasWnd11ResetFramesEv
__imp___ZN12mglCanvasWnd11SetDrawFuncEPFiP7mglBasePvES2_PFvS2_E
__imp___ZN12mglCanvasWnd5SetupEbb
__imp___ZN12mglCanvasWnd6ReLoadEv
__imp___ZN12mglCanvasWnd7GetBitsEv
__imp___ZN12mglCanvasWnd7SetSizeEiib
__imp___ZN12mglCanvasWnd8DelFrameEl
__imp___ZN12mglCanvasWnd8EndFrameEv
__imp___ZN12mglCanvasWnd8SetFrameEl
__imp___ZN12mglCanvasWnd9NextFrameEv
__imp___ZN12mglCanvasWnd9PrevFrameEv
__imp___ZN12mglCanvasWnd9SetCurFigEi
__imp___ZN12mglCanvasWndC1Ev
__imp___ZN12mglCanvasWndC2Ev
__imp___ZN12mglCanvasWndD0Ev
__imp___ZN12mglCanvasWndD1Ev
__imp___ZN12mglCanvasWndD2Ev
__imp___ZN12QApplication12activeWindowEv
__imp___ZN12QApplication4execEv
__imp___ZN12QApplicationC1ERiPPci
__imp___ZN12QInputDialog7getTextEP7QWidgetRK7QStringS4_N9QLineEdit8EchoModeES4_Pb6QFlagsIN2Qt10WindowTypeEES8_INS9_15InputMethodHintEE
__imp___ZN12QKeySequenceC1Eiiii
__imp___ZN12QKeySequenceD1Ev
__imp___ZN12QPrintDialog4execEv
__imp___ZN12QPrintDialogC1EP8QPrinterP7QWidget
__imp___ZN12QPrintDialogD1Ev
__imp___ZN13mglDrawScript4DrawEP8mglGraph
__imp___ZN13mglDrawScriptD0Ev
__imp___ZN13mglDrawScriptD1Ev
__imp___ZN15QGuiApplication17setOverrideCursorERK7QCursor
__imp___ZN15QGuiApplication21restoreOverrideCursorEv
__imp___ZN15QGuiApplication9clipboardEv
__imp___ZN16QAbstractSpinBox11setWrappingEb
__imp___ZN16QCoreApplication12setAttributeEN2Qt20ApplicationAttributeEb
__imp___ZN16QCoreApplication13processEventsE6QFlagsIN10QEventLoop17ProcessEventsFlagEE
__imp___ZN16QCoreApplication4selfE
__imp___ZN5mglQT3RunEv
__imp___ZN5mglQT6WidgetEv
__imp___ZN5mglQTD0Ev
__imp___ZN5mglQTD1Ev
__imp___ZN5QIconC1ERK7QPixmap
__imp___ZN5QIconD1Ev
__imp___ZN5QMenu12addSeparatorEv
__imp___ZN5QMenu5popupERK6QPointP7QAction
__imp___ZN5QMenu7addMenuEPS_
__imp___ZN5QMenu7addMenuERK7QString
__imp___ZN5QMenu9addActionERK7QStringPK7QObjectPKcRK12QKeySequence
__imp___ZN5QMenuC1EP7QWidget
__imp___ZN5QMenuC1ERK7QStringP7QWidget
__imp___ZN6mglPntaSERKS_
__imp___ZN6mglPntC1ERKS_
__imp___ZN6mglPntC1Ev
__imp___ZN6mglWnd6WidgetEv
__imp___ZN6mglWndD0Ev
__imp___ZN6mglWndD1Ev
__imp___ZN6mglWndD2Ev
__imp___ZN6QBrushC1ERK6QColorN2Qt10BrushStyleE
__imp___ZN6QBrushD1Ev
__imp___ZN6QColor6setRgbEiiii
__imp___ZN6QImageaSERKS_
__imp___ZN6QImageC1EPhiiNS_6FormatEPFvPvES2_
__imp___ZN6QImageC1Ev
__imp___ZN6QImageD1Ev
__imp___ZN6QTimer11setIntervalEi
__imp___ZN6QTimer4stopEv
__imp___ZN6QTimer5startEi
__imp___ZN6QTimer5startEv
__imp___ZN6QTimerC1EP7QObject
__imp___ZN7mglAxis5ClearEv
__imp___ZN7mglAxis8AddLabelEPKwd
__imp___ZN7mglAxis8AddLabelERKSbIwSt11char_traitsIwESaIwEEd
__imp___ZN7mglAxisC1ERKS_
__imp___ZN7mglAxisC1Ev
__imp___ZN7mglBase10AddTextureE8mglColor
__imp___ZN7mglBase10AddTextureEPKci
__imp___ZN7mglBase10AdjustZMinEv
__imp___ZN7mglBase10SetAmbientEd
__imp___ZN7mglBase10SetDiffuseEd
__imp___ZN7mglBase10SetDrawRegElll
__imp___ZN7mglBase10SetFontDefEPKc
__imp___ZN7mglBase10SetMeshNumEi
__imp___ZN7mglBase10SetPaletteEPKc
__imp___ZN7mglBase10SetQualityEi
__imp___ZN7mglBase10StartGroupEPKci
__imp___ZN7mglBase11AttachLightEb
__imp___ZN7mglBase11ClearLegendEv
__imp___ZN7mglBase11ClearPrmIndEv
__imp___ZN7mglBase11ClearUnusedEv
__imp___ZN7mglBase11GetPenWidthEv
__imp___ZN7mglBase11RestoreFontEv
__imp___ZN7mglBase11SetAlphaDefEd
__imp___ZN7mglBase11SetBarWidthEd
__imp___ZN7mglBase11SetDifLightEb
__imp___ZN7mglBase11SetFontSizeEd
__imp___ZN7mglBase11SetMarkSizeEd
__imp___ZN7mglBase11SetTickSkipEb
__imp___ZN7mglBase12RecalcBorderEv
__imp___ZN7mglBase12RecalcCRangeEv
__imp___ZN7mglBase12SetArrowSizeEd
__imp___ZN7mglBase12SetDefSchemeEPKc
__imp___ZN7mglBase12SetEventFuncEPFvPvES0_
__imp___ZN7mglBase12SetMaskAngleEi
__imp___ZN7mglBase12SetReduceAccEb
__imp___ZN7mglBase13SetAutoRangesEdddddddd
__imp___ZN7mglBase13SetFontSizePTEdi
__imp___ZN7mglBase13SetTickRotateEb
__imp___ZN7mglBase14SetRotatedTextEb
__imp___ZN7mglBase3clrEj
__imp___ZN7mglBase3setEbj
__imp___ZN7mglBase3setEj
__imp___ZN7mglBase5AlphaEb
__imp___ZN7mglBase5LightEb
__imp___ZN7mglBase6AddPntE8mglPointdS0_di
__imp___ZN7mglBase6AddPntEPK9mglMatrix8mglPointdS3_di
__imp___ZN7mglBase6CRangeEddb
__imp___ZN7mglBase6CRangeEPK8mglDataAbd
__imp___ZN7mglBase6CutOffEPKc
__imp___ZN7mglBase6GetPrmElb
__imp___ZN7mglBase6SetCutEb
__imp___ZN7mglBase6XRangeEddb
__imp___ZN7mglBase6XRangeEPK8mglDataAbd
__imp___ZN7mglBase6YRangeEddb
__imp___ZN7mglBase6YRangeEPK8mglDataAbd
__imp___ZN7mglBase6ZRangeEddb
__imp___ZN7mglBase6ZRangeEPK8mglDataAbd
__imp___ZN7mglBase7AskStopEb
__imp___ZN7mglBase7ClearEqEv
__imp___ZN7mglBase7GetFontEv
__imp___ZN7mglBase7ReserveEl
__imp___ZN7mglBase7SetCoorEi
__imp___ZN7mglBase7SetFuncEPKcS1_S1_S1_
__imp___ZN7mglBase7SetMaskEPKc
__imp___ZN7mglBase7SetRGBAElRK8mglColor
__imp___ZN7mglBase7SetWarnEiPKc
__imp___ZN7mglBase7TernaryEi
__imp___ZN7mglBase8AddGlyphEil
__imp___ZN7mglBase8CopyFontEPS_
__imp___ZN7mglBase8CopyNtoCEld
__imp___ZN7mglBase8CopyProjEl8mglPointS0_s
__imp___ZN7mglBase8DefColorE8mglColor
__imp___ZN7mglBase8LoadFontEPKcS1_
__imp___ZN7mglBase8NeedStopEv
__imp___ZN7mglBase8SetFBordEddd
__imp___ZN7mglBase8ZoomAxisE8mglPointS0_
__imp___ZN7mglBase9AddActiveEli
__imp___ZN7mglBase9AddLegendEPKcS1_
__imp___ZN7mglBase9AddLegendEPKwPKc
__imp___ZN7mglBase9HighlightEi
__imp___ZN7mglBase9LoadStateEv
__imp___ZN7mglBase9mark_sizeEv
__imp___ZN7mglBase9NextColorEll
__imp___ZN7mglBase9NextColorERl
__imp___ZN7mglBase9ResetMaskEv
__imp___ZN7mglBase9SaveStateEPKc
__imp___ZN7mglBase9SetCutBoxEdddddd
__imp___ZN7mglBase9SetOriginEdddd
__imp___ZN7mglBase9SetPenPalEPKcPlb
__imp___ZN7mglBase9SetRangesE8mglPointS0_
__imp___ZN7mglBase9SetRangesEdddddddd
__imp___ZN7mglBase9vect_plotElld
__imp___ZN7mglBaseC1Ev
__imp___ZN7mglBaseC2Ev
__imp___ZN7mglBaseD0Ev
__imp___ZN7mglBaseD1Ev
__imp___ZN7mglBaseD2Ev
__imp___ZN7mglData10FillSampleEPKc
__imp___ZN7mglData11SetColumnIdEPKc
__imp___ZN7mglData3PutEdlll
__imp___ZN7mglData3PutERK8mglDataAlll
__imp___ZN7mglData3SetEP10gsl_matrix
__imp___ZN7mglData3SetEPK8mglDataA
__imp___ZN7mglData3SetEPKdlll
__imp___ZN7mglData3SetERK8mglDataA
__imp___ZN7mglData3SewEPKcd
__imp___ZN7mglData4CropEllc
__imp___ZN7mglData4DiffEPKc
__imp___ZN7mglData4DiffERK8mglDataAS2_
__imp___ZN7mglData4DiffERK8mglDataAS2_S2_
__imp___ZN7mglData4FillEddc
__imp___ZN7mglData4FillEP7mglBasePKcS3_
__imp___ZN7mglData4JoinERK8mglDataA
__imp___ZN7mglData4MoveEPS_
__imp___ZN7mglData4NormEddbl
__imp___ZN7mglData4ReadEPKc
__imp___ZN7mglData4ReadEPKclll
__imp___ZN7mglData4RollEcl
__imp___ZN7mglData4SortEll
__imp___ZN7mglData4SwapEPKc
__imp___ZN7mglData5CleanEl
__imp___ZN7mglData5Diff2EPKc
__imp___ZN7mglData5LimitEd
__imp___ZN7mglData5NewIdEv
__imp___ZN7mglData5set_vEdlll
__imp___ZN7mglData6CosFFTEPKc
__imp___ZN7mglData6CreateElll
__imp___ZN7mglData6CumSumEPKc
__imp___ZN7mglData6DeleteEcll
__imp___ZN7mglData6ExtendEll
__imp___ZN7mglData6HankelEPKc
__imp___ZN7mglData6ImportEPKcS1_dd
__imp___ZN7mglData6InsertEcll
__imp___ZN7mglData6MirrorEPKc
__imp___ZN7mglData6ModifyEPKcl
__imp___ZN7mglData6ModifyEPKcRK8mglDataA
__imp___ZN7mglData6ModifyEPKcRK8mglDataAS4_
__imp___ZN7mglData6NormSlEddcbb
__imp___ZN7mglData6SinFFTEPKc
__imp___ZN7mglData6SmoothEPKcd
__imp___ZN7mglData7EnvelopEc
__imp___ZN7mglData7ReadAllEPKcb
__imp___ZN7mglData7ReadHDFEPKcS1_
__imp___ZN7mglData7ReadMatEPKcl
__imp___ZN7mglData7SqueezeElllb
__imp___ZN7mglData7WaveletEPKci
__imp___ZN7mglData8IntegralEPKc
__imp___ZN7mglData8RefillGSERK8mglDataAS2_ddl
__imp___ZN7mglData8ScanFileEPKcS1_
__imp___ZN7mglData9ReadRangeEPKcdddb
__imp___ZN7mglData9RearrangeElll
__imp___ZN7mglData9TransposeEPKc
__imp___ZN7mglDataaSEd
__imp___ZN7mglDataaSERK8mglDataA
__imp___ZN7mglDataaSERKS_
__imp___ZN7mglDataC1EbPS_
__imp___ZN7mglDataC1EiPKd
__imp___ZN7mglDataC1Elll
__imp___ZN7mglDataC1EPK8mglDataA
__imp___ZN7mglDataC1EPKc
__imp___ZN7mglDataC1EPKdi
__imp___ZN7mglDataC1ERKS_
__imp___ZN7mglDataD0Ev
__imp___ZN7mglDataD1Ev
__imp___ZN7mglDatadVEd
__imp___ZN7mglDatadVERK8mglDataA
__imp___ZN7mglDatamIEd
__imp___ZN7mglDatamIERK8mglDataA
__imp___ZN7mglDatamLEd
__imp___ZN7mglDatamLERK8mglDataA
__imp___ZN7mglDatapLEd
__imp___ZN7mglDatapLERK8mglDataA
__imp___ZN7mglDraw4CalcEv
__imp___ZN7mglDraw5ClickEv
__imp___ZN7mglDraw6ReloadEv
__imp___ZN7mglDrawD0Ev
__imp___ZN7mglDrawD1Ev
__imp___ZN7mglDrawD2Ev
__imp___ZN7mglFLTK3RunEv
__imp___ZN7mglFLTK6WidgetEv
__imp___ZN7mglFLTKD0Ev
__imp___ZN7mglFLTKD1Ev
__imp___ZN7mglFont4CopyEPS_
__imp___ZN7mglFont4LoadEPKcS1_
__imp___ZN7mglFont5ClearEv
__imp___ZN7mglFont7LoadBinEPKcS1_
__imp___ZN7mglFont7RestoreEv
__imp___ZN7mglFont7SaveBinEPKc
__imp___ZN7mglFont8read_defEv
__imp___ZN7mglFont9main_copyEv
__imp___ZN7mglFont9mem_allocEl
__imp___ZN7mglFont9read_dataEPKciRSt6vectorIsSaIsEERS2_I13mglGlyphDescrSaIS6_EE
__imp___ZN7mglFont9read_mainEPKcRSt6vectorIsSaIsEE
__imp___ZN7mglFontC1EPKcS1_
__imp___ZN7mglFontC2EPKcS1_
__imp___ZN7mglFontD0Ev
__imp___ZN7mglFontD1Ev
__imp___ZN7mglFontD2Ev
__imp___ZN7mglPrimaSERKS_
__imp___ZN7mglPrimC1Ei
__imp___ZN7mglPrimC1ERKS_
__imp___ZN7mglTextaSERKS_
__imp___ZN7mglTextC1EPKwPKcd
__imp___ZN7mglTextC1ERKS_
__imp___ZN7mglTextC1ERKSbIwSt11char_traitsIwESaIwEEd
__imp___ZN7QAction10setToolTipERK7QString
__imp___ZN7QAction11setShortcutERK12QKeySequence
__imp___ZN7QAction12setCheckableEb
__imp___ZN7QActionC1ERK5QIconRK7QStringP7QObject
__imp___ZN7QActionC1ERK7QStringP7QObject
__imp___ZN7QCursor3posEv
__imp___ZN7QCursorC1EN2Qt11CursorShapeE
__imp___ZN7QCursorD1Ev
__imp___ZN7QMathGL10addEllipseEv
__imp___ZN7QMathGL10addPolygonEi
__imp___ZN7QMathGL10customDrawEddddb
__imp___ZN7QMathGL10customZoomEddddddd
__imp___ZN7QMathGL10exportMGLDE7QString
__imp___ZN7QMathGL10exportPNGsE7QString
__imp___ZN7QMathGL10mouseClickEddd
__imp___ZN7QMathGL10objChangedEi
__imp___ZN7QMathGL10paintEventEP11QPaintEvent
__imp___ZN7QMathGL10perChangedEi
__imp___ZN7QMathGL10phiChangedEi
__imp___ZN7QMathGL10posChangedE7QString
__imp___ZN7QMathGL10setMGLFontE7QString
__imp___ZN7QMathGL10setZoomSclEd
__imp___ZN7QMathGL10shiftRightEv
__imp___ZN7QMathGL10tetChangedEi
__imp___ZN7QMathGL10wheelEventEP11QWheelEvent
__imp___ZN7QMathGL11doubleClickEi
__imp___ZN7QMathGL11gridChangedEi
__imp___ZN7QMathGL11qt_metacallEN11QMetaObject4CallEiPPv
__imp___ZN7QMathGL11qt_metacastEPKc
__imp___ZN7QMathGL11refreshDataEv
__imp___ZN7QMathGL11resizeEventEP12QResizeEvent
__imp___ZN7QMathGL11setCustDrawEb
__imp___ZN7QMathGL11setCustZoomEb
__imp___ZN7QMathGL11setShiftSclEd
__imp___ZN7QMathGL11zoomChangedEb
__imp___ZN7QMathGL12alphaChangedEb
__imp___ZN7QMathGL12frameChangedEi
__imp___ZN7QMathGL12lightChangedEb
__imp___ZN7QMathGL12pauseChangedEb
__imp___ZN7QMathGL13copyClickCoorEv
__imp___ZN7QMathGL13rotateChangedEb
__imp___ZN7QMathGL13viewYZChangedEb
__imp___ZN7QMathGL14mouseMoveEventEP11QMouseEvent
__imp___ZN7QMathGL14setDotsPreviewEb
__imp___ZN7QMathGL14usePrimChangedEb
__imp___ZN7QMathGL15mousePressEventEP11QMouseEvent
__imp___ZN7QMathGL16staticMetaObjectE
__imp___ZN7QMathGL17mouseReleaseEventEP11QMouseEvent
__imp___ZN7QMathGL18qt_static_metacallEP7QObjectN11QMetaObject4CallEiPPv
__imp___ZN7QMathGL21mouseDoubleClickEventEP11QMouseEvent
__imp___ZN7QMathGL2trEPKcS1_i
__imp___ZN7QMathGL4copyEv
__imp___ZN7QMathGL4stopEv
__imp___ZN7QMathGL5aboutEv
__imp___ZN7QMathGL5printEv
__imp___ZN7QMathGL6addArcEv
__imp___ZN7QMathGL6adjustEv
__imp___ZN7QMathGL6setPerEi
__imp___ZN7QMathGL6setPhiEi
__imp___ZN7QMathGL6setTetEi
__imp___ZN7QMathGL6updateEv
__imp___ZN7QMathGL6zoomInEv
__imp___ZN7QMathGL7aboutQtEv
__imp___ZN7QMathGL7addLineEv
__imp___ZN7QMathGL7addMarkEv
__imp___ZN7QMathGL7addRectEv
__imp___ZN7QMathGL7addTextE7QString
__imp___ZN7QMathGL7imgSizeEii
__imp___ZN7QMathGL7refreshEv
__imp___ZN7QMathGL7restoreEv
__imp___ZN7QMathGL7setDrawEP7mglDraw
__imp___ZN7QMathGL7setDrawEPFiP7mglBasePvES2_
__imp___ZN7QMathGL7setGridEb
__imp___ZN7QMathGL7setSizeEii
__imp___ZN7QMathGL7setZoomEb
__imp___ZN7QMathGL7shiftUpEv
__imp___ZN7QMathGL7zoomOutEv
__imp___ZN7QMathGL8addCurveEv
__imp___ZN7QMathGL8addRhombEv
__imp___ZN7QMathGL8askStyleEi
__imp___ZN7QMathGL8drawPrimEv
__imp___ZN7QMathGL8getClassEv
__imp___ZN7QMathGL8getRatioEv
__imp___ZN7QMathGL8setAlphaEb
__imp___ZN7QMathGL8setGraphEP7mglBase
__imp___ZN7QMathGL8setLightEb
__imp___ZN7QMathGL8setPauseEb
__imp___ZN7QMathGL8setStyleEi7QString
__imp___ZN7QMathGL8showWarnE7QString
__imp___ZN7QMathGL9afterPlotEv
__imp___ZN7QMathGL9animationEb
__imp___ZN7QMathGL9exportBPSE7QString
__imp___ZN7QMathGL9exportEPSE7QString
__imp___ZN7QMathGL9exportGIFE7QString
__imp___ZN7QMathGL9exportJPGE7QString
__imp___ZN7QMathGL9exportOBJE7QString
__imp___ZN7QMathGL9exportOFFE7QString
__imp___ZN7QMathGL9exportPNGE7QString
__imp___ZN7QMathGL9exportPRCE7QString
__imp___ZN7QMathGL9exportSTLE7QString
__imp___ZN7QMathGL9exportSVGE7QString
__imp___ZN7QMathGL9exportTEXE7QString
__imp___ZN7QMathGL9exportTGAE7QString
__imp___ZN7QMathGL9exportXYZE7QString
__imp___ZN7QMathGL9nextSlideEv
__imp___ZN7QMathGL9prevSlideEv
__imp___ZN7QMathGL9refreshHQEv
__imp___ZN7QMathGL9setRotateEb
__imp___ZN7QMathGL9setViewYZEb
__imp___ZN7QMathGL9shiftDownEv
__imp___ZN7QMathGL9shiftLeftEv
__imp___ZN7QMathGLC1EP7QWidget6QFlagsIN2Qt10WindowTypeEE
__imp___ZN7QMathGLC2EP7QWidget6QFlagsIN2Qt10WindowTypeEE
__imp___ZN7QMathGLD0Ev
__imp___ZN7QMathGLD1Ev
__imp___ZN7QMathGLD2Ev
__imp___ZN7QObject16staticMetaObjectE
__imp___ZN7QObject7connectEPKS_PKcS1_S3_N2Qt14ConnectionTypeE
__imp___ZN7QPixmap9fromImageERK6QImage6QFlagsIN2Qt19ImageConversionFlagEE
__imp___ZN7QPixmapaSERKS_
__imp___ZN7QPixmapC1EPKPKc
__imp___ZN7QPixmapC1Ev
__imp___ZN7QPixmapD1Ev
__imp___ZN7QString14compare_helperEPK5QChariPKciN2Qt15CaseSensitivityE
__imp___ZN7QString15fromUtf8_helperEPKci
__imp___ZN7QString16fromAscii_helperEPKci
__imp___ZN7QString6appendERKS_
__imp___ZN7QString6numberEdci
__imp___ZN7QString6numberEii
__imp___ZN7QString7sprintfEPKcz
__imp___ZN7QString9fromUtf16EPKti
__imp___ZN7QStringaSERKS_
__imp___ZN7QStringC1E5QChar
__imp___ZN7QWidget10setToolTipERK7QString
__imp___ZN7QWidget11qt_metacallEN11QMetaObject4CallEiPPv
__imp___ZN7QWidget11qt_metacastEPKc
__imp___ZN7QWidget13showMaximizedEv
__imp___ZN7QWidget14setWindowTitleERK7QString
__imp___ZN7QWidget16staticMetaObjectE
__imp___ZN7QWidget4showEv
__imp___ZN7QWidget6resizeERK5QSize
__imp___ZN7QWidget7repaintEv
__imp___ZN7QWidget9addActionEP7QAction
__imp___ZN7QWidgetC2EPS_6QFlagsIN2Qt10WindowTypeEE
__imp___ZN7QWidgetD2Ev
__imp___ZN8mglBlockaSERKS_
__imp___ZN8mglBlockC1ERKS_
__imp___ZN8mglBlockC1Ev
__imp___ZN8mglColor3SetEcf
__imp___ZN8mglColor3SetEffff
__imp___ZN8mglColor3SetES_f
__imp___ZN8mglColor5ValidEv
__imp___ZN8mglColoraSERKS_
__imp___ZN8mglColorC1Ecf
__imp___ZN8mglColorC1Effff
__imp___ZN8mglColorC1ERKS_
__imp___ZN8mglColorC1Ev
__imp___ZN8mglDataA5set_vEdlll
__imp___ZN8mglDataAC2Ev
__imp___ZN8mglDataAD0Ev
__imp___ZN8mglDataAD1Ev
__imp___ZN8mglDataAD2Ev
__imp___ZN8mglDataC11DiffractionEPKcd
__imp___ZN8mglDataC11SetColumnIdEPKc
__imp___ZN8mglDataC3FFTEPKc
__imp___ZN8mglDataC3PutERK8mglDataAlll
__imp___ZN8mglDataC3PutESt7complexIdElll
__imp___ZN8mglDataC3SetEPK8mglDataA
__imp___ZN8mglDataC3SetEPKSt7complexIdElll
__imp___ZN8mglDataC3SetERK8mglDataA
__imp___ZN8mglDataC4CropEllc
__imp___ZN8mglDataC4DiffEPKc
__imp___ZN8mglDataC4FillEP7mglBasePKcS3_
__imp___ZN8mglDataC4FillESt7complexIdES1_c
__imp___ZN8mglDataC4JoinERK8mglDataA
__imp___ZN8mglDataC4MoveEPS_
__imp___ZN8mglDataC4ReadEPKc
__imp___ZN8mglDataC4ReadEPKclll
__imp___ZN8mglDataC4RollEcl
__imp___ZN8mglDataC4SwapEPKc
__imp___ZN8mglDataC5Diff2EPKc
__imp___ZN8mglDataC5LimitEd
__imp___ZN8mglDataC5NewIdEv
__imp___ZN8mglDataC5set_vEdlll
__imp___ZN8mglDataC6CreateElll
__imp___ZN8mglDataC6CumSumEPKc
__imp___ZN8mglDataC6DeleteEcll
__imp___ZN8mglDataC6ExtendEll
__imp___ZN8mglDataC6HankelEPKc
__imp___ZN8mglDataC6InsertEcll
__imp___ZN8mglDataC6MirrorEPKc
__imp___ZN8mglDataC6ModifyEPKcl
__imp___ZN8mglDataC6ModifyEPKcRK8mglDataA
__imp___ZN8mglDataC6ModifyEPKcRK8mglDataAS4_
__imp___ZN8mglDataC6SmoothEPKcd
__imp___ZN8mglDataC7ReadAllEPKcb
__imp___ZN8mglDataC7ReadHDFEPKcS1_
__imp___ZN8mglDataC7ReadMatEPKcl
__imp___ZN8mglDataC7SqueezeElllb
__imp___ZN8mglDataC8IntegralEPKc
__imp___ZN8mglDataC8RefillGSERK8mglDataAS2_ddl
__imp___ZN8mglDataC9ReadRangeEPKcdddb
__imp___ZN8mglDataC9RearrangeElll
__imp___ZN8mglDataC9TransposeEPKc
__imp___ZN8mglDataCaSERKS_
__imp___ZN8mglDataCaSESt7complexIdE
__imp___ZN8mglDataCC1EbPS_
__imp___ZN8mglDataCC1Elll
__imp___ZN8mglDataCC1EPK8mglDataA
__imp___ZN8mglDataCC1EPKc
__imp___ZN8mglDataCC1ERK8mglDataA
__imp___ZN8mglDataCC1ERKS_
__imp___ZN8mglDataCD0Ev
__imp___ZN8mglDataCD1Ev
__imp___ZN8mglDataCdVERK8mglDataA
__imp___ZN8mglDataCdVESt7complexIdE
__imp___ZN8mglDataCmIERK8mglDataA
__imp___ZN8mglDataCmIESt7complexIdE
__imp___ZN8mglDataCmLERK8mglDataA
__imp___ZN8mglDataCmLESt7complexIdE
__imp___ZN8mglDataCpLERK8mglDataA
__imp___ZN8mglDataCpLESt7complexIdE
__imp___ZN8mglDataFD0Ev
__imp___ZN8mglDataFD1Ev
__imp___ZN8mglDataR6SetIndElPKw
__imp___ZN8mglDataRC1ERK8mglDataAl
__imp___ZN8mglDataRD0Ev
__imp___ZN8mglDataRD1Ev
__imp___ZN8mglDataSD0Ev
__imp___ZN8mglDataSD1Ev
__imp___ZN8mglDataT6SetIndElw
__imp___ZN8mglDataTC1ERK8mglDataAl
__imp___ZN8mglDataTD0Ev
__imp___ZN8mglDataTD1Ev
__imp___ZN8mglDataV3AllEv
__imp___ZN8mglDataV4FillEddc
__imp___ZN8mglDataV6CreateElll
__imp___ZN8mglDataVC1Elllddc
__imp___ZN8mglDataVD0Ev
__imp___ZN8mglDataVD1Ev
__imp___ZN8mglDataW4FreqEdc
__imp___ZN8mglDataWC1Ellldc
__imp___ZN8mglDataWD0Ev
__imp___ZN8mglDataWD1Ev
__imp___ZN8mglGlyph6CreateEll
__imp___ZN8mglGlyphaSERKS_
__imp___ZN8mglGlyphC1Ell
__imp___ZN8mglGlyphC1ERKS_
__imp___ZN8mglGlyphC1Ev
__imp___ZN8mglGlypheqERKS_
__imp___ZN8mglGlyphneERKS_
__imp___ZN8mglGraph10SetSizeSclEd
__imp___ZN8mglGraph13SetFontSizePTEdi
__imp___ZN8mglGraph3ArcE8mglPointS0_S0_dPKc
__imp___ZN8mglGraph4FaceE8mglPointS0_S0_S0_PKc
__imp___ZN8mglGraph5CurveE8mglPointS0_S0_S0_PKci
__imp___ZN8mglGraph7SetMaskEcPKc
__imp___ZN8mglGraph7SetMaskEcy
__imp___ZN8mglGraphC1EP7mglBase
__imp___ZN8mglGraphD0Ev
__imp___ZN8mglGraphD1Ev
__imp___ZN8mglGraphD2Ev
__imp___ZN8mglGroupaSERKS_
__imp___ZN8mglGroupC1EPKci
__imp___ZN8mglGroupC1ERKS_
__imp___ZN8mglLightC1Ev
__imp___ZN8mglParseC1Eb
__imp___ZN8mglParseD0Ev
__imp___ZN8mglParseD1Ev
__imp___ZN8mglPoint3SetEdddd
__imp___ZN8mglPoint3valEi
__imp___ZN8mglPoint4normEv
__imp___ZN8mglPoint9NormalizeEv
__imp___ZN8mglPointaSERKS_
__imp___ZN8mglPointC1Edddd
__imp___ZN8mglPointC1ERKS_
__imp___ZN8mglPointdVEd
__imp___ZN8mglPointmIERKS_
__imp___ZN8mglPointmLEd
__imp___ZN8mglPointpLERKS_
__imp___ZN8QMenuBar12addSeparatorEv
__imp___ZN8QMenuBar7addMenuERK7QString
__imp___ZN8QPainter10drawPixmapERK7QPointFRK7QPixmap
__imp___ZN8QPainter3endEv
__imp___ZN8QPainter5beginEP12QPaintDevice
__imp___ZN8QPainter6setPenERK6QColor
__imp___ZN8QPainter8drawTextERK7QPointFRK7QString
__imp___ZN8QPainter8fillRectERK5QRectRK6QBrush
__imp___ZN8QPainter9drawLinesEPK5QLinei
__imp___ZN8QPainter9drawRectsEPK5QRecti
__imp___ZN8QPainterC1Ev
__imp___ZN8QPainterD1Ev
__imp___ZN8QPrinter13setResolutionEi
__imp___ZN8QPrinter14setOrientationENS_11OrientationE
__imp___ZN8QPrinterC1ENS_11PrinterModeE
__imp___ZN8QSpinBox13setSingleStepEi
__imp___ZN8QSpinBox8setRangeEii
__imp___ZN8QSpinBoxC1EP7QWidget
__imp___ZN8QToolBar12addSeparatorEv
__imp___ZN8QToolBar9addWidgetEP7QWidget
__imp___ZN8QToolBarC1ERK7QStringP7QWidget
__imp___ZN9Fl_MathGL4drawEv
__imp___ZN9Fl_MathGL4stopEb
__imp___ZN9Fl_MathGL6handleEi
__imp___ZN9Fl_MathGL6resizeEiiii
__imp___ZN9Fl_MathGL6updateEv
__imp___ZN9Fl_MathGL8get_zoomEPdS0_S0_S0_
__imp___ZN9Fl_MathGL8set_drawEPFiP7mglBasePvES2_
__imp___ZN9Fl_MathGL8set_zoomEdddd
__imp___ZN9Fl_MathGL9get_classEv
__imp___ZN9Fl_MathGL9set_graphEP7mglBase
__imp___ZN9Fl_MathGL9set_popupEPK12Fl_Menu_ItemP9Fl_WidgetPv
__imp___ZN9Fl_MathGLC1EiiiiPKc
__imp___ZN9Fl_MathGLC2EiiiiPKc
__imp___ZN9Fl_MathGLD0Ev
__imp___ZN9Fl_MathGLD1Ev
__imp___ZN9Fl_MathGLD2Ev
__imp___ZN9mglCanvas10arrow_drawEllcf
__imp___ZN9mglCanvas10arrow_plotEllc
__imp___ZN9mglCanvas10ClearFrameEv
__imp___ZN9mglCanvas10DrawLabelsER7mglAxisbPK9mglMatrix
__imp___ZN9mglCanvas10ExportMGLDEPKcS1_
__imp___ZN9mglCanvas10glyph_drawERK7mglPrimP10mglDrawReg
__imp___ZN9mglCanvas10glyph_fillEPK9mglMatrixRK6mglPntdRK8mglGlyphPK10mglDrawReg
__imp___ZN9mglCanvas10glyph_fpixEllPK9mglMatrixRK6mglPntdRK8mglGlyphPK10mglDrawReg
__imp___ZN9mglCanvas10glyph_lineEPK9mglMatrixRK6mglPntdbPK10mglDrawReg
__imp___ZN9mglCanvas10glyph_lpixEllPK9mglMatrixRK6mglPntdbPK10mglDrawReg
__imp___ZN9mglCanvas10glyph_wireEPK9mglMatrixRK6mglPntdRK8mglGlyphPK10mglDrawReg
__imp___ZN9mglCanvas10glyph_wpixEllPK9mglMatrixRK6mglPntdRK8mglGlyphPK10mglDrawReg
__imp___ZN9mglCanvas10ImportMGLDEPKcb
__imp___ZN9mglCanvas10LabelTicksER7mglAxis
__imp___ZN9mglCanvas10LightScaleEPK9mglMatrix
__imp___ZN9mglCanvas10LightScaleEPK9mglMatrixR8mglLight
__imp___ZN9mglCanvas10PushDrwDatEv
__imp___ZN9mglCanvas10PutDrawRegEP10mglDrawRegPKS_
__imp___ZN9mglCanvas10pxl_backgrEllPKv
__imp___ZN9mglCanvas10pxl_dotsdrEllPKv
__imp___ZN9mglCanvas10pxl_memcpyEllPKv
__imp___ZN9mglCanvas10pxl_pntcolEllPKv
__imp___ZN9mglCanvas10pxl_primdrEllPKv
__imp___ZN9mglCanvas10pxl_primpxEllPKv
__imp___ZN9mglCanvas10SetAxisStlEPKcS1_S1_
__imp___ZN9mglCanvas10SetTickLenEdd
__imp___ZN9mglCanvas10UpdateAxisEv
__imp___ZN9mglCanvas11AdjustTicksEPKcbSs
__imp___ZN9mglCanvas11AdjustTicksER7mglAxisb
__imp___ZN9mglCanvas11GetGlyphPhiERK6mglPntf
__imp___ZN9mglCanvas11GetLabelPosEdlR7mglAxis
__imp___ZN9mglCanvas11GetRGBLinesERlS0_RPhb
__imp___ZN9mglCanvas11PerspectiveEdb
__imp___ZN9mglCanvas11PreparePrimEi
__imp___ZN9mglCanvas11pxl_combineEllPKv
__imp___ZN9mglCanvas11ResetFramesEv
__imp___ZN9mglCanvas11SetPenDeltaEf
__imp___ZN9mglCanvas11SetTicksValEcPK8mglDataAPKcb
__imp___ZN9mglCanvas11SetTicksValEcPK8mglDataAPKwb
__imp___ZN9mglCanvas11SetTicksValEcPK8mglDataAPPKcb
__imp___ZN9mglCanvas11SetTicksValEcPK8mglDataAPPKwb
__imp___ZN9mglCanvas11SetTicksValEcPKcb
__imp___ZN9mglCanvas11SetTicksValEcPKwb
__imp___ZN9mglCanvas11SetTickTimeEcdPKc
__imp___ZN9mglCanvas12pxl_setz_advEllPKv
__imp___ZN9mglCanvas12SetTickShiftE8mglPoint
__imp___ZN9mglCanvas12SetTickTemplEcPKc
__imp___ZN9mglCanvas12SetTickTemplEcPKw
__imp___ZN9mglCanvas12SetTuneTicksEid
__imp___ZN9mglCanvas13arrow_plot_3dEllcf
__imp___ZN9mglCanvas13GetBackgroundEv
__imp___ZN9mglCanvas13GetPlotFactorEv
__imp___ZN9mglCanvas13pxl_transformEllPKv
__imp___ZN9mglCanvas13SetPlotFactorEd
__imp___ZN9mglCanvas13SetTranspTypeEi
__imp___ZN9mglCanvas14FillBackgroundERK8mglColor
__imp___ZN9mglCanvas14LoadBackgroundEPKcd
__imp___ZN9mglCanvas14SetLegendMarksEi
__imp___ZN9mglCanvas14StartAutoGroupEPKc
__imp___ZN9mglCanvas16DefaultPlotParamEv
__imp___ZN9mglCanvas3BoxEPKcb
__imp___ZN9mglCanvas3ClfE8mglColor
__imp___ZN9mglCanvas3ClfEPKc
__imp___ZN9mglCanvas3FogEdd
__imp___ZN9mglCanvas3PopEv
__imp___ZN9mglCanvas4AxisEPKcS1_S1_
__imp___ZN9mglCanvas4GridEPKcS1_S1_
__imp___ZN9mglCanvas4PushEv
__imp___ZN9mglCanvas4ViewEddd
__imp___ZN9mglCanvas4ZoomEdddd
__imp___ZN9mglCanvas5ClfZBEb
__imp___ZN9mglCanvas5GlyphEdddild
__imp___ZN9mglCanvas5LabelEcPKcdS1_
__imp___ZN9mglCanvas5LightEib
__imp___ZN9mglCanvas5setPpER6mglPntRK8mglPoint
__imp___ZN9mglCanvas5ShearEdd
__imp___ZN9mglCanvas5TableEddPK8mglDataAPKwPKcS6_
__imp___ZN9mglCanvas5TitleEPKcS1_d
__imp___ZN9mglCanvas5TitleEPKwPKcd
__imp___ZN9mglCanvas6AspectEddd
__imp___ZN9mglCanvas6FinishEv
__imp___ZN9mglCanvas6InPlotEddddb
__imp___ZN9mglCanvas6InPlotEddddPKc
__imp___ZN9mglCanvas6InPlotER9mglMatrixddddb
__imp___ZN9mglCanvas6LabelwEcPKwdPKc
__imp___ZN9mglCanvas6LegendEddPKcS1_
__imp___ZN9mglCanvas6LegendEiPKcS1_
__imp___ZN9mglCanvas6LegendERKSt6vectorI7mglTextSaIS1_EEddPKcS7_
__imp___ZN9mglCanvas6RotateEddd
__imp___ZN9mglCanvas7AddTickEcdPKc
__imp___ZN9mglCanvas7AddTickEcdPKw
__imp___ZN9mglCanvas7CombineEPKS_
__imp___ZN9mglCanvas7GetBitsEv
__imp___ZN9mglCanvas7GetJSONEv
__imp___ZN9mglCanvas7GetRGBAEv
__imp___ZN9mglCanvas7pnt_pixEllRK6mglPntPK10mglDrawReg
__imp___ZN9mglCanvas7RestoreEv
__imp___ZN9mglCanvas7RotateNEdddd
__imp___ZN9mglCanvas7SetSizeEiib
__imp___ZN9mglCanvas8add_primER7mglPrim
__imp___ZN9mglCanvas8AddLightEi8mglPointcdd
__imp___ZN9mglCanvas8AddLightEi8mglPointS0_cdd
__imp___ZN9mglCanvas8CloseGIFEv
__imp___ZN9mglCanvas8ColorbarEPK8mglDataAPKc
__imp___ZN9mglCanvas8ColorbarEPK8mglDataAPKcdddd
__imp___ZN9mglCanvas8colorbarEPK8mglDataAPKdiddddb
__imp___ZN9mglCanvas8ColorbarEPKc
__imp___ZN9mglCanvas8ColorbarEPKcdddd
__imp___ZN9mglCanvas8DelFrameEl
__imp___ZN9mglCanvas8DrawAxisER7mglAxisbcPKcd
__imp___ZN9mglCanvas8DrawGridER7mglAxisb
__imp___ZN9mglCanvas8EndFrameEv
__imp___ZN9mglCanvas8EndGroupEv
__imp___ZN9mglCanvas8GetFrameEl
__imp___ZN9mglCanvas8IdentityEb
__imp___ZN9mglCanvas8IsActiveEiiRi
__imp___ZN9mglCanvas8line_pixEllRK6mglPntS2_PK10mglDrawReg
__imp___ZN9mglCanvas8mark_pixEllRK6mglPntcdP10mglDrawReg
__imp___ZN9mglCanvas8NewFrameEv
__imp___ZN9mglCanvas8pnt_drawERK6mglPntPK10mglDrawReg
__imp___ZN9mglCanvas8pnt_fastElldPKhi
__imp___ZN9mglCanvas8pnt_plotElldPKhi
__imp___ZN9mglCanvas8pxl_setzEllPKv
__imp___ZN9mglCanvas8quad_pixEllRK6mglPntS2_S2_S2_PK10mglDrawReg
__imp___ZN9mglCanvas8SetDelayEd
__imp___ZN9mglCanvas8SetFrameEl
__imp___ZN9mglCanvas8SetObjIdEl
__imp___ZN9mglCanvas8SetTicksEcdidPKw
__imp___ZN9mglCanvas8StartGIFEPKci
__imp___ZN9mglCanvas8trig_pixEllRK6mglPntS2_S2_bPK10mglDrawReg
__imp___ZN9mglCanvas9fast_drawERK6mglPntS2_PK10mglDrawReg
__imp___ZN9mglCanvas9glyph_pixEllRK7mglPrimP10mglDrawReg
__imp___ZN9mglCanvas9line_drawERK6mglPntS2_PK10mglDrawReg
__imp___ZN9mglCanvas9line_plotEll
__imp___ZN9mglCanvas9mark_drawERK6mglPntcdP10mglDrawReg
__imp___ZN9mglCanvas9mark_plotElcd
__imp___ZN9mglCanvas9ProjScaleEilb
__imp___ZN9mglCanvas9pxl_otherEllPKv
__imp___ZN9mglCanvas9quad_drawERK6mglPntS2_S2_S2_PK10mglDrawReg
__imp___ZN9mglCanvas9quad_plotEllll
__imp___ZN9mglCanvas9RasterizeEv
__imp___ZN9mglCanvas9ShearPlotEiidddd
__imp___ZN9mglCanvas9ShowFrameEl
__imp___ZN9mglCanvas9StickPlotEiidd
__imp___ZN9mglCanvas9text_plotElPKwPKcdddb
__imp___ZN9mglCanvas9tick_drawE8mglPointS0_S0_i
__imp___ZN9mglCanvas9trig_drawERK6mglPntS2_S2_bPK10mglDrawReg
__imp___ZN9mglCanvas9trig_plotElll
__imp___ZN9mglCanvas9WriteJSONEPKcb
__imp___ZN9mglCanvasC1Eii
__imp___ZN9mglCanvasC2Eii
__imp___ZN9mglCanvasD0Ev
__imp___ZN9mglCanvasD1Ev
__imp___ZN9mglCanvasD2Ev
__imp___ZN9mglMatrix5clearEv
__imp___ZN9mglMatrix6RotateEddd
__imp___ZN9mglMatrix7RotateNEdddd
__imp___ZN9mglMatrixaSERKS_
__imp___ZN9mglMatrixC1ERKS_
__imp___ZN9mglMatrixC1Ev
__imp___ZNK10mglFormula4CalcEdddd
__imp___ZNK10mglFormula4CalcEdddddd
__imp___ZNK10mglFormula4CalcEPKd
__imp___ZNK10mglFormula5CalcDEcdddd
__imp___ZNK10mglFormula5CalcDEcdddddd
__imp___ZNK10mglFormula5CalcDEPKdc
__imp___ZNK10mglFormula6CalcInEPKd
__imp___ZNK10mglFormula7CalcDInEiPKd
__imp___ZNK10mglTexture10GetRGBAOBJEPh
__imp___ZNK10mglTexture10GetRGBAPRCEPh
__imp___ZNK10mglTexture4GetCEdd
__imp___ZNK10mglTexture4GetCEddR6mglPnt
__imp___ZNK10mglTexture7GetRGBAEPh
__imp___ZNK11mglFormulaC4CalcEPKSt7complexIdE
__imp___ZNK11mglFormulaC4CalcESt7complexIdES1_S1_S1_
__imp___ZNK11mglFormulaC4CalcESt7complexIdES1_S1_S1_S1_S1_
__imp___ZNK11mglFormulaC6CalcInEPKSt7complexIdE
__imp___ZNK11QMainWindow7menuBarEv
__imp___ZNK11QMetaObject2trEPKcS1_i
__imp___ZNK11QObjectData17dynamicMetaObjectEv
__imp___ZNK12mglCanvasWnd11GetMousePosEv
__imp___ZNK12mglCanvasWnd9GetCurFigEv
__imp___ZNK12mglCanvasWnd9GetNumFigEv
__imp___ZNK7mglBase10FontFactorEv
__imp___ZNK7mglBase10GetQualityEv
__imp___ZNK7mglBase10ScalePointEPK9mglMatrixR8mglPointS4_b
__imp___ZNK7mglBase10TextHeightEPKcd
__imp___ZNK7mglBase12GetArrowSizeEv
__imp___ZNK7mglBase3getEj
__imp___ZNK7mglBase4GetAEd
__imp___ZNK7mglBase4GetBEv
__imp___ZNK7mglBase4GetCEldb
__imp___ZNK7mglBase6GetGlfEl
__imp___ZNK7mglBase6GetPntEl
__imp___ZNK7mglBase6GetPrmElb
__imp___ZNK7mglBase6GetPtxEl
__imp___ZNK7mglBase6GetTxtEl
__imp___ZNK7mglBase6PrmCmpEll
__imp___ZNK7mglBase7GetClrCEl
__imp___ZNK7mglBase7GetPntCEl
__imp___ZNK7mglBase7GetPntPEl
__imp___ZNK7mglBase7GetWarnEv
__imp___ZNK7mglBase8GetRatioEv
__imp___ZNK7mglBase8GetWidthEv
__imp___ZNK7mglBase9GetHeightEv
__imp___ZNK7mglBase9GetNumPalEl
__imp___ZNK7mglBase9GetPntNumEv
__imp___ZNK7mglBase9GetPrmNumEv
__imp___ZNK7mglBase9GetTxtNumEv
__imp___ZNK7mglBase9TextWidthEPKcS1_d
__imp___ZNK7mglBase9TextWidthEPKwPKcd
__imp___ZNK7mglData1vElll
__imp___ZNK7mglData3dvxElll
__imp___ZNK7mglData3dvyElll
__imp___ZNK7mglData3dvzElll
__imp___ZNK7mglData4vthrEl
__imp___ZNK7mglData5GetNxEv
__imp___ZNK7mglData5GetNyEv
__imp___ZNK7mglData5GetNzEv
__imp___ZNK7mglData5valueEddd
__imp___ZNK7mglData6valueDEdddPdS0_S0_
__imp___ZNK7mglData7SubDataElll
__imp___ZNK7mglFont11draw_oulineEiffffff
__imp___ZNK7mglFont11GetNumGlyphEv
__imp___ZNK7mglFont4PutsEPKcS1_ff
__imp___ZNK7mglFont4PutsEPKjfffiff
__imp___ZNK7mglFont4PutsEPKwiiff
__imp___ZNK7mglFont4PutsEPKwPKcff
__imp___ZNK7mglFont5GetLnEil
__imp___ZNK7mglFont5GetNlEil
__imp___ZNK7mglFont5GetNtEil
__imp___ZNK7mglFont5GetTrEil
__imp___ZNK7mglFont5ParseEPKw
__imp___ZNK7mglFont5WidthEPKcS1_
__imp___ZNK7mglFont5WidthEPKwi
__imp___ZNK7mglFont5WidthEPKwPKc
__imp___ZNK7mglFont6HeightEi
__imp___ZNK7mglFont6HeightEPKc
__imp___ZNK7mglFont7ConvertEPKwPj
__imp___ZNK7mglFont7get_ptrERlPjPS1_S2_RfS3_ffi
__imp___ZNK7mglFont7GetFactEi
__imp___ZNK7mglFont8GetWidthEil
__imp___ZNK7mglFont8InternalEj
__imp___ZNK7QMathGL10metaObjectEv
__imp___ZNK7QPixmap4sizeEv
__imp___ZNK7QPixmap5widthEv
__imp___ZNK7QPixmap6heightEv
__imp___ZNK7QString11toLocal8BitEv
__imp___ZNK7QString5countE5QCharN2Qt15CaseSensitivityE
__imp___ZNK7QString5rightEi
__imp___ZNK7QString5toIntEPbi
__imp___ZNK7QString7sectionERKS_ii6QFlagsINS_11SectionFlagEE
__imp___ZNK7QString7toFloatEPb
__imp___ZNK7QWidget1xEv
__imp___ZNK7QWidget1yEv
__imp___ZNK8mglColoreqERKS_
__imp___ZNK8mglColorneERKS_
__imp___ZNK8mglDataA10MaximalNegEv
__imp___ZNK8mglDataA10MinimalPosEv
__imp___ZNK8mglDataA2vcElll
__imp___ZNK8mglDataA3GetEl
__imp___ZNK8mglDataA4FindEPKcRlS2_S2_
__imp___ZNK8mglDataA4LastEPKcRlS2_S2_
__imp___ZNK8mglDataA4SaveEPKcl
__imp___ZNK8mglDataA4vthrEl
__imp___ZNK8mglDataA5GetNNEv
__imp___ZNK8mglDataA5vcthrEl
__imp___ZNK8mglDataA6ExportEPKcS1_ddl
__imp___ZNK8mglDataA6linearEddd
__imp___ZNK8mglDataA7FindAnyEPKc
__imp___ZNK8mglDataA7MaximalERdS0_S0_
__imp___ZNK8mglDataA7MaximalEv
__imp___ZNK8mglDataA7MinimalEv
__imp___ZNK8mglDataA7SaveHDFEPKcS1_b
__imp___ZNK8mglDataA7Spline1Eddd
__imp___ZNK8mglDataA7Spline1ER8mglPointddd
__imp___ZNK8mglDataA8MomentumEcRdS0_
__imp___ZNK8mglDataA8MomentumEcRdS0_S0_S0_
__imp___ZNK8mglDataA9PrintInfoEv
__imp___ZNK8mglDataC1vElll
__imp___ZNK8mglDataC2vcElll
__imp___ZNK8mglDataC3AbsEv
__imp___ZNK8mglDataC3ArgEv
__imp___ZNK8mglDataC3dvxElll
__imp___ZNK8mglDataC3dvyElll
__imp___ZNK8mglDataC3dvzElll
__imp___ZNK8mglDataC3GetEl
__imp___ZNK8mglDataC4ImagEv
__imp___ZNK8mglDataC4RealEv
__imp___ZNK8mglDataC4SaveEPKcl
__imp___ZNK8mglDataC4vthrEl
__imp___ZNK8mglDataC5GetNxEv
__imp___ZNK8mglDataC5GetNyEv
__imp___ZNK8mglDataC5GetNzEv
__imp___ZNK8mglDataC5valueEddd
__imp___ZNK8mglDataC5vcthrEl
__imp___ZNK8mglDataC6valueDEdddPdS0_S0_
__imp___ZNK8mglDataC7SaveHDFEPKcS1_b
__imp___ZNK8mglDataF1vElll
__imp___ZNK8mglDataF3dvxElll
__imp___ZNK8mglDataF3dvyElll
__imp___ZNK8mglDataF3dvzElll
__imp___ZNK8mglDataF4vthrEl
__imp___ZNK8mglDataF5GetNxEv
__imp___ZNK8mglDataF5GetNyEv
__imp___ZNK8mglDataF5GetNzEv
__imp___ZNK8mglDataF5valueEddd
__imp___ZNK8mglDataF6valueDEdddPdS0_S0_
__imp___ZNK8mglDataR1vElll
__imp___ZNK8mglDataR3dvxElll
__imp___ZNK8mglDataR3dvyElll
__imp___ZNK8mglDataR3dvzElll
__imp___ZNK8mglDataR4vthrEl
__imp___ZNK8mglDataR5GetNxEv
__imp___ZNK8mglDataR5GetNyEv
__imp___ZNK8mglDataR5GetNzEv
__imp___ZNK8mglDataR5valueEddd
__imp___ZNK8mglDataR6valueDEdddPdS0_S0_
__imp___ZNK8mglDataR7MaximalEv
__imp___ZNK8mglDataR7MinimalEv
__imp___ZNK8mglDataS1vElll
__imp___ZNK8mglDataS3dvxElll
__imp___ZNK8mglDataS3dvyElll
__imp___ZNK8mglDataS3dvzElll
__imp___ZNK8mglDataS4vthrEl
__imp___ZNK8mglDataS5GetNxEv
__imp___ZNK8mglDataS5GetNyEv
__imp___ZNK8mglDataS5GetNzEv
__imp___ZNK8mglDataS5valueEddd
__imp___ZNK8mglDataS6valueDEdddPdS0_S0_
__imp___ZNK8mglDataT1vElll
__imp___ZNK8mglDataT3dvxElll
__imp___ZNK8mglDataT3dvyElll
__imp___ZNK8mglDataT3dvzElll
__imp___ZNK8mglDataT4vthrEl
__imp___ZNK8mglDataT5GetNxEv
__imp___ZNK8mglDataT5GetNyEv
__imp___ZNK8mglDataT5GetNzEv
__imp___ZNK8mglDataT5valueEddd
__imp___ZNK8mglDataT6valueDEdddPdS0_S0_
__imp___ZNK8mglDataT7MaximalEv
__imp___ZNK8mglDataT7MinimalEv
__imp___ZNK8mglDataV1vElll
__imp___ZNK8mglDataV3dvxElll
__imp___ZNK8mglDataV3dvyElll
__imp___ZNK8mglDataV3dvzElll
__imp___ZNK8mglDataV4vthrEl
__imp___ZNK8mglDataV5GetNxEv
__imp___ZNK8mglDataV5GetNyEv
__imp___ZNK8mglDataV5GetNzEv
__imp___ZNK8mglDataV5valueEddd
__imp___ZNK8mglDataV6valueDEdddPdS0_S0_
__imp___ZNK8mglDataV7MaximalEv
__imp___ZNK8mglDataV7MinimalEv
__imp___ZNK8mglDataW1vElll
__imp___ZNK8mglDataW3dvxElll
__imp___ZNK8mglDataW3dvyElll
__imp___ZNK8mglDataW3dvzElll
__imp___ZNK8mglDataW4vthrEl
__imp___ZNK8mglDataW5GetNxEv
__imp___ZNK8mglDataW5GetNyEv
__imp___ZNK8mglDataW5GetNzEv
__imp___ZNK8mglDataW5valueEddd
__imp___ZNK8mglDataW6valueDEdddPdS0_S0_
__imp___ZNK8mglDataW7MaximalEv
__imp___ZNK8mglDataW7MinimalEv
__imp___ZNK8QPrinter10resolutionEv
__imp___ZNK8QPrinter8pageRectENS_4UnitE
__imp___ZNK9mglCanvas10FindOptOrgEci
__imp___ZNK9mglCanvas10RestorePntE8mglPointb
__imp___ZNK9mglCanvas10ScalePointEPK9mglMatrixR8mglPointS4_b
__imp___ZNK9mglCanvas11GetNumFrameEv
__imp___ZNK9mglCanvas7CalcScrE8mglPoint
__imp___ZNK9mglCanvas7CalcScrE8mglPointPiS1_
__imp___ZNK9mglCanvas7CalcXYZEiib
__imp___ZNK9mglCanvas7col2intERK6mglPntPhi
__imp___ZNK9mglCanvas7combineEPhPKh
__imp___ZNK9mglCanvas7GetOrgXEcb
__imp___ZNK9mglCanvas7GetOrgYEcb
__imp___ZNK9mglCanvas7GetOrgZEcb
__imp___ZNK9mglCanvas8GetColorERK7mglPrim
__imp___ZNK9mglCanvas8GetDelayEv
__imp___ZNK9mglCanvas8GetObjIdEll
__imp___ZNK9mglCanvas8GetRatioEv
__imp___ZNK9mglCanvas8GetSplIdEll
__imp___ZNK9mglCanvas8GetWidthEv
__imp___ZNK9mglCanvas9GetHeightEv
__imp___ZNK9mglCanvas9GetPrmColElb
__imp___ZNK9mglCanvas9PostScaleEPK9mglMatrixR8mglPoint
__imp___ZThn8_N7QMathGLD0Ev
__imp___ZThn8_N7QMathGLD1Ev
__imp___ZTI10Fl_MGLView
__imp___ZTI11mglCanvasGL
__imp___ZTI11mglFormulaC
__imp___ZTI12mglCanvasWnd
__imp___ZTI13mglDrawScript
__imp___ZTI5mglQT
__imp___ZTI6mglWnd
__imp___ZTI7mglBase
__imp___ZTI7mglData
__imp___ZTI7mglDraw
__imp___ZTI7mglFLTK
__imp___ZTI7mglFont
__imp___ZTI7QMathGL
__imp___ZTI8mglDataA
__imp___ZTI8mglDataC
__imp___ZTI8mglDataF
__imp___ZTI8mglDataR
__imp___ZTI8mglDataS
__imp___ZTI8mglDataT
__imp___ZTI8mglDataV
__imp___ZTI8mglDataW
__imp___ZTI8mglGraph
__imp___ZTI8mglParse
__imp___ZTI9Fl_MathGL
__imp___ZTI9mglCanvas
__imp___ZTV10Fl_MGLView
__imp___ZTV11mglCanvasGL
__imp___ZTV11mglFormulaC
__imp___ZTV12mglCanvasWnd
__imp___ZTV13mglDrawScript
__imp___ZTV5mglQT
__imp___ZTV6mglWnd
__imp___ZTV7mglBase
__imp___ZTV7mglData
__imp___ZTV7mglDraw
__imp___ZTV7mglFLTK
__imp___ZTV7mglFont
__imp___ZTV7QMathGL
__imp___ZTV8mglDataA
__imp___ZTV8mglDataC
__imp___ZTV8mglDataF
__imp___ZTV8mglDataR
__imp___ZTV8mglDataS
__imp___ZTV8mglDataT
__imp___ZTV8mglDataV
__imp___ZTV8mglDataW
__imp___ZTV8mglGraph
__imp___ZTV8mglParse
__imp___ZTV9Fl_MathGL
__imp___ZTV9mglCanvas
__nm___ZN10mglFormula5ErrorE
__nm___ZN11mglFormulaC5ErrorE
__nm___ZN7QMathGL16staticMetaObjectE
__nm___ZTI10Fl_MGLView
__nm___ZTI11mglCanvasGL
__nm___ZTI11mglFormulaC
__nm___ZTI12mglCanvasWnd
__nm___ZTI13mglDrawScript
__nm___ZTI5mglQT
__nm___ZTI6mglWnd
__nm___ZTI7mglBase
__nm___ZTI7mglData
__nm___ZTI7mglDraw
__nm___ZTI7mglFLTK
__nm___ZTI7mglFont
__nm___ZTI7QMathGL
__nm___ZTI8mglDataA
__nm___ZTI8mglDataC
__nm___ZTI8mglDataF
__nm___ZTI8mglDataR
__nm___ZTI8mglDataS
__nm___ZTI8mglDataT
__nm___ZTI8mglDataV
__nm___ZTI8mglDataW
__nm___ZTI8mglGraph
__nm___ZTI8mglParse
__nm___ZTI9Fl_MathGL
__nm___ZTI9mglCanvas
__nm___ZTV10Fl_MGLView
__nm___ZTV11mglCanvasGL
__nm___ZTV11mglFormulaC
__nm___ZTV12mglCanvasWnd
__nm___ZTV13mglDrawScript
__nm___ZTV5mglQT
__nm___ZTV6mglWnd
__nm___ZTV7mglBase
__nm___ZTV7mglData
__nm___ZTV7mglDraw
__nm___ZTV7mglFLTK
__nm___ZTV7mglFont
__nm___ZTV7QMathGL
__nm___ZTV8mglDataA
__nm___ZTV8mglDataC
__nm___ZTV8mglDataF
__nm___ZTV8mglDataR
__nm___ZTV8mglDataS
__nm___ZTV8mglDataT
__nm___ZTV8mglDataV
__nm___ZTV8mglDataW
__nm___ZTV8mglGraph
__nm___ZTV8mglParse
__nm___ZTV9Fl_MathGL
__nm___ZTV9mglCanvas
_mgl_slice::~_mgl_slice()
_mgl_vec_slice::_mgl_vec_slice()
_mgl_vec_slice::~_mgl_vec_slice()
absc(std::complex<double>)
acos_d(double)
acosc(std::complex<double>)
acosh_d(double)
acoshc(std::complex<double>)
add(double, double)
addc(std::complex<double>, std::complex<double>)
alpha_xpm
arc_xpm
arg(double, double)
argc(std::complex<double>)
asin_d(double)
asinc(std::complex<double>)
asinh_d(double)
asinhc(std::complex<double>)
atan_d(double)
atanc(std::complex<double>)
atanh_d(double)
atanhc(std::complex<double>)
BC
bif_dat(double, double, void*)
bif_str(double, double, void*)
cand(double, double)
ceq(double, double)
ceqc(std::complex<double>, std::complex<double>)
cgt(double, double)
cgtc(std::complex<double>, std::complex<double>)
ci_d(double)
circle_cent2(double, double, double, double, double, double, double&, double&, double&)
circle_cent4(double, double, double, double, double, double, double&, double&, double&)
Cline_Renka_test(double&, double&, double&, double&, double&, double&, double&, double&)
clt(double, double)
cltc(std::complex<double>, std::complex<double>)
CLZ(unsigned int)
CLZ(unsigned int)::MultiplyDeBruijnBitPosition
conjc(std::complex<double>)
ContentPRCBase::~ContentPRCBase()
ContentPRCBase::~ContentPRCBase()
ContentPRCBase::ContentPRCBase(unsigned int, std::basic_string<char, std::char_traits<char>, std::allocator<char> >)
ContentPRCBase::serializeContentPRCBase(PRCbitStream&) const
copy_xpm
cor(double, double)
cos_d(double)
cosc(std::complex<double>)
coshc(std::complex<double>)
curve_xpm
de_duplicate(std::vector<Shx, std::allocator<Shx> >&, std::vector<long, std::allocator<long> >&, Dupex)
de_duplicateX(std::vector<Shx, std::allocator<Shx> >&, std::vector<long, std::allocator<long> >&, std::vector<Shx, std::allocator<Shx> >&)
del(double, double)
dilog_d(double)
div1(double, double)
div2(double, double)
divc(std::complex<double>, std::complex<double>)
double mgl_spline3st<double>(double const*, long, double)
double mgl_spline3t<double>(double const*, long, double, double&)
double mglLineart<double>(double const*, long, long, long, double, double, double)
double mglSpline1st<double>(double const*, long, double)
double mglSpline1t<double>(double const*, long, double, double*)
double mglSpline3st<double>(double const*, long, long, long, double, double, double)
double mglSpline3t<double>(double const*, long, long, long, double, double, double, double*, double*, double*)
down_1_xpm
e1_d(double)
e2_d(double)
ei_d(double)
erf_d(double)
exp3_d(double)
expc(std::complex<double>)
expi(double)
expi(std::complex<double>)
f1
f11
f2
f21
f22
face_plot(mglBase*, mglPoint, mglPoint, mglPoint, double, bool)
fileprint
fill_slice_x(mglBase*, double, mglDataA const*, mglDataV&, mglDataV&, mglDataV&, mglData&) [clone ._omp_fn.0]
fill_slice_x(mglBase*, double, mglDataA const*, mglDataV&, mglDataV&, mglDataV&, mglData&)
fill_slice_y(mglBase*, double, mglDataA const*, mglDataV&, mglDataV&, mglDataV&, mglData&) [clone ._omp_fn.1]
fill_slice_y(mglBase*, double, mglDataA const*, mglDataV&, mglDataV&, mglDataV&, mglData&)
fill_slice_z(mglBase*, double, mglDataA const*, mglDataV&, mglDataV&, mglDataV&, mglData&) [clone ._omp_fn.2]
fill_slice_z(mglBase*, double, mglDataA const*, mglDataV&, mglDataV&, mglDataV&, mglData&)
FindVar(std::vector<mglDataA*, std::allocator<mglDataA*> > const&, std::basic_string<wchar_t, std::char_traits<wchar_t>, std::allocator<wchar_t> > const&)
Fl::add_timeout(double, void (*)(void*), void*)
Fl::awake(void*)
Fl::e_keysym
Fl::e_x
Fl::e_y
Fl::first_window()
Fl::flush()
Fl::get_mouse(int&, int&)
Fl::lock()
Fl::repeat_timeout(double, void (*)(void*), void*)
Fl::run()
Fl::screen_xywh(int&, int&, int&, int&, int, int)
Fl::unlock()
Fl_Button::Fl_Button(int, int, int, int, char const*)
Fl_Button::value(int)
Fl_Counter::Fl_Counter(int, int, int, int, char const*)
Fl_Double_Window::Fl_Double_Window(int, int, char const*)
fl_draw(char const*, int, int)
fl_file_chooser(char const*, char const*, char const*, int)
Fl_Group::as_group()
Fl_Group::end()
Fl_Group::Fl_Group(int, int, int, int, char const*)
Fl_Image::~Fl_Image()
fl_input(char const*, char const*, ...)
Fl_MathGL::~Fl_MathGL()
Fl_MathGL::~Fl_MathGL()
Fl_MathGL::~Fl_MathGL()
Fl_MathGL::draw()
Fl_MathGL::Fl_MathGL(int, int, int, int, char const*)
Fl_MathGL::Fl_MathGL(int, int, int, int, char const*)
Fl_MathGL::get_class()
Fl_MathGL::get_zoom(double*, double*, double*, double*)
Fl_MathGL::handle(int)
Fl_MathGL::resize(int, int, int, int)
Fl_MathGL::set_draw(int (*)(mglBase*, void*), void*)
Fl_MathGL::set_graph(mglBase*)
Fl_MathGL::set_popup(Fl_Menu_Item const*, Fl_Widget*, void*)
Fl_MathGL::set_zoom(double, double, double, double)
Fl_MathGL::stop(bool)
Fl_MathGL::update()
Fl_Menu_::add(char const*, int, void (*)(Fl_Widget*, void*), void*, int)
Fl_Menu_::find_item(char const*)
Fl_Menu_Bar::Fl_Menu_Bar(int, int, int, int, char const*)
Fl_Menu_Item::popup(int, int, char const*, Fl_Menu_Item const*, Fl_Menu_ const*) const
fl_message(char const*, ...)
Fl_MGLView::~Fl_MGLView()
Fl_MGLView::~Fl_MGLView()
Fl_MGLView::~Fl_MGLView()
Fl_MGLView::adjust()
Fl_MGLView::exec_pause()
Fl_MGLView::Fl_MGLView(int, int, int, int, char const*)
Fl_MGLView::Fl_MGLView(int, int, int, int, char const*)
Fl_MGLView::setoff(int&, Fl_Button*, char const*)
Fl_MGLView::setoff_rotate()
Fl_MGLView::setoff_zoom()
Fl_MGLView::toggle(int&, Fl_Button*, char const*)
Fl_MGLView::toggle_alpha()
Fl_MGLView::toggle_grid()
Fl_MGLView::toggle_light()
Fl_MGLView::toggle_pause()
Fl_MGLView::toggle_rotate()
Fl_MGLView::toggle_sshow()
Fl_MGLView::toggle_zoom()
Fl_MGLView::update()
fl_old_shortcut(char const*)
Fl_Pixmap::~Fl_Pixmap()
Fl_Pixmap::Fl_Pixmap(char const* const*)
Fl_Pixmap::measure()
Fl_Pixmap::set_data(char const* const*)
Fl_Scroll::Fl_Scroll(int, int, int, int, char const*)
Fl_Valuator::step(double)
Fl_Valuator::value(double)
Fl_Widget::~Fl_Widget()
Fl_Widget::as_gl_window()
Fl_Widget::as_group()
Fl_Widget::as_window()
Fl_Widget::Fl_Widget(int, int, int, int, char const*)
Fl_Widget::hide()
Fl_Widget::redraw()
Fl_Widget::resize(int, int, int, int)
Fl_Widget::show()
Fl_Widget::tooltip(char const*)
Fl_Window::~Fl_Window()
Fl_Window::as_window()
Fl_Window::draw()
Fl_Window::Fl_Window(int, int, int, int, char const*)
Fl_Window::flush()
Fl_Window::handle(int)
Fl_Window::hide()
Fl_Window::label(char const*)
Fl_Window::resize(int, int, int, int)
Fl_Window::show()
Fl_Window::show(int, char**)
flow(mglBase*, double, double, double, mglDataA const*, mglDataA const*, mglDataA const*, mglDataA const*, long, bool)
flow(mglBase*, double, double, double, mglDataA const*, mglDataA const*, mglDataA const*, mglDataA const*, mglDataA const*, mglDataA const*, long, bool, bool, bool)
flow(mglBase*, double, double, double, mglDataA const*, mglDataA const*, mglDataA const*, mglDataA const*, mglDataA const*, mglDataA const*, long, bool, bool, bool)::n
flowr(mglBase*, double, double, double, mglDataA const*, mglDataA const*, mglDataA const*, mglDataA const*, double, long)
flowr(mglBase*, double, double, double, mglDataA const*, mglDataA const*, mglDataA const*, mglDataA const*, mglDataA const*, mglDataA const*, double, long)
flowr(mglBase*, double, double, double, mglDataA const*, mglDataA const*, mglDataA const*, mglDataA const*, mglDataA const*, mglDataA const*, double, long)::n
func_dat(double, void*)
func_str(double, void*)
gamma_d(double)
getcofdoe(unsigned int, short)
GetNumberOfBitsUsedToStoreDouble(double, double)
GetNumberOfBitsUsedToStoreInteger(int)
GetNumberOfBitsUsedToStoreTripleInteger(itriple const&)
GetNumberOfBitsUsedToStoreUnsignedInteger(unsigned int)
GetX(mglDataA const*, int, int, int)
GetY(mglDataA const*, int, int, int)
GetZ(mglDataA const*, int, int, int)
ginc_d(double, double)
gslAi(double)
gslAi_d(double)
gslBi(double)
gslBi_d(double)
gslE_d(double)
gslEllE(double, double)
gslEllE1(double, double)
gslEllE2(double, double)
gslEllEc(double)
gslEllF(double, double)
gslEllF1(double, double)
gslEllF2(double, double)
gslEllFc(double)
gslInuD(double, double)
gslJnuD(double, double)
gslK_d(double)
gslKnuD(double, double)
gslLegP(double, double)
gslYnuD(double, double)
guard variable for flow(mglBase*, double, double, double, mglDataA const*, mglDataA const*, mglDataA const*, mglDataA const*, mglDataA const*, mglDataA const*, long, bool, bool, bool)::n
guard variable for flowr(mglBase*, double, double, double, mglDataA const*, mglDataA const*, mglDataA const*, mglDataA const*, mglDataA const*, mglDataA const*, double, long)::n
guard variable for mgl_get_dash(unsigned short, double, char)::s
guard variable for mgl_get_json::json
guard variable for mgl_triangulation_2d::float_eps
guard variable for mglBase::Ternary(int)::o
guard variable for mglBase::Ternary(int)::x1
guard variable for mglBase::Ternary(int)::x2
guard variable for mglCanvas::FindOptOrg(char, int) const::bb
guard variable for mglCanvas::FindOptOrg(char, int) const::px
guard variable for mglCanvas::FindOptOrg(char, int) const::py
guard variable for mglCanvas::FindOptOrg(char, int) const::pz
guard variable for mglCanvas::Finish()::bp
imagc(std::complex<double>)
intdiv(double, double)
ipw(double, double)
ipw1(double, double)
ipwc(std::complex<double>, std::complex<double>)
iroundto(PRCVector3d, double)
IsCompressedType(unsigned int)
isid(double const*)
left_1_xpm
lgc(std::complex<double>)
light_xpm
line_xpm
llg(double, double)
llg1(double, double)
llg2(double, double)
llgc(std::complex<double>, std::complex<double>)
log_d(double)
log10_d(double)
Log2(unsigned int)
logc(std::complex<double>)
makeAppUUID(PRCUniqueId&)
makeCADID()
makeCADID()::ID
makeFileUUID(PRCUniqueId&)
makeFileUUID(PRCUniqueId&)::count
makePRCID()
makePRCID()::ID
mark_a_xpm
mark_d_xpm
mark_o_xpm
mark_s_xpm
mgl_acosh(double)
mgl_add_edges(mglBase*, mglDataA const*, mglDataA const*, mglDataA const*, mglDataA const*, long, long, long, long, double, long&, long&, long, double, double)
mgl_add_file(long&, long&, long&, double*&, mglData*, bool)
mgl_add_file(long&, long&, long&, std::complex<double>*&, mglDataC*, bool)
mgl_add_pnt(mglBase*, double, mglDataA const*, mglDataA const*, mglDataA const*, long, long, long, long, double, bool)
mgl_add_range(mglBase*, mglDataA const*, mglDataA const*, mglDataA const*, mglDataA const*, long, long, long, long, double, long&, long&, long, double, double)
mgl_adj_val(double, double*)
mgl_adjust_cb(Fl_Widget*, void*)
mgl_adjust_ticks_(unsigned int*, char const*, char const*, int, int)
mgl_alpha_cb(Fl_Widget*, void*)
mgl_arc_ext::cgid
mgl_arch_var41(double&, double&, double, double, double const*)
mgl_area_xy::cgid
mgl_area_xyz::cgid
mgl_asinh(double)
mgl_ask_fltk::buf
mgl_ask_gets(wchar_t const*, wchar_t*)
mgl_ask_qt(wchar_t const*, wchar_t*)
mgl_atanh(double)
mgl_axial_gen(mglBase*, double, mglDataA const*, mglDataA const*, mglDataA const*, double, char, long, int)
mgl_axial_plot(mglBase*, long, mglPoint*, long*, char, double, int)
mgl_axial_xy_val::cgid
mgl_ball::cgid
mgl_barh_yx::cgid
mgl_bars_xy::cgid
mgl_bars_xyz::cgid
mgl_belt_xy::cgid
mgl_bent_var14(double&, double&, double, double, double const*)
mgl_bifurcation::cgid
mgl_blade_var44(double&, double&, double, double, double const*)
mgl_blob_var23(double&, double&, double, double, double const*)
mgl_blur_var34(double&, double&, double, double, double const*)
mgl_bmp_save(char const*, int, int, unsigned char**)
mgl_boxplot_xy::cgid
mgl_boxs_xy::cgid
mgl_bps_save(char const*, int, int, unsigned char**)
mgl_bubble_var28(double&, double&, double, double, double const*)
mgl_candle_xyv::cgid
mgl_canvas_thr(void*)
mgl_ccsum_x(void*) [clone ._omp_fn.8]
mgl_ccsum_x(void*)
mgl_ccsum_y(void*) [clone ._omp_fn.7]
mgl_ccsum_y(void*)
mgl_ccsum_z(void*) [clone ._omp_fn.6]
mgl_ccsum_z(void*)
mgl_cdif_x(void*) [clone ._omp_fn.14]
mgl_cdif_x(void*)
mgl_cdif_y(void*) [clone ._omp_fn.13]
mgl_cdif_y(void*)
mgl_cdif_z(void*) [clone ._omp_fn.12]
mgl_cdif_z(void*)
mgl_cdif2_x(void*) [clone ._omp_fn.17]
mgl_cdif2_x(void*)
mgl_cdif2_y(void*) [clone ._omp_fn.16]
mgl_cdif2_y(void*)
mgl_cdif2_z(void*) [clone ._omp_fn.15]
mgl_cdif2_z(void*)
mgl_cfill_x(void*) [clone ._omp_fn.2]
mgl_cfill_x(void*)
mgl_chart::cgid
mgl_check_dim0(mglBase*, mglDataA const*, mglDataA const*, mglDataA const*, mglDataA const*, char const*, bool)
mgl_check_dim1(mglBase*, mglDataA const*, mglDataA const*, mglDataA const*, mglDataA const*, char const*, bool)
mgl_check_dim2(mglBase*, mglDataA const*, mglDataA const*, mglDataA const*, mglDataA const*, char const*, bool)
mgl_check_dim3(mglBase*, bool, mglDataA const*, mglDataA const*, mglDataA const*, mglDataA const*, mglDataA const*, char const*)
mgl_check_tex_table()
mgl_check_trig(mglBase*, mglDataA const*, mglDataA const*, mglDataA const*, mglDataA const*, mglDataA const*, char const*, int)
mgl_check_vec3(mglBase*, mglDataA const*, mglDataA const*, mglDataA const*, mglDataA const*, mglDataA const*, mglDataA const*, char const*)
mgl_chnkx(void*) [clone ._omp_fn.18]
mgl_chnkx(void*)
mgl_chnky(void*) [clone ._omp_fn.19]
mgl_chnky(void*)
mgl_chnkz(void*) [clone ._omp_fn.20]
mgl_chnkz(void*)
mgl_cint_x(void*) [clone ._omp_fn.11]
mgl_cint_x(void*)
mgl_cint_y(void*) [clone ._omp_fn.10]
mgl_cint_y(void*)
mgl_cint_z(void*) [clone ._omp_fn.9]
mgl_cint_z(void*)
mgl_cloud_xyz::cgid
mgl_cmd_cmp(void const*, void const*)
mgl_cmd_idx(void const*, void const*)
mgl_cmodify(void*) [clone ._omp_fn.15]
mgl_cmodify(void*)
mgl_cmp_flt(void const*, void const*)
mgl_col_dif(unsigned char*, unsigned char*, bool)
mgl_cone::cgid
mgl_cones_xyz::cgid
mgl_cont_gen(mglBase*, double, mglDataA const*, mglDataA const*, mglDataA const*, mglDataA const*, double, int, long)
mgl_cont_x_val::cgid
mgl_cont_xy_val::cgid
mgl_cont_y_val::cgid
mgl_cont_z_val::cgid
mgl_cont3_xyz_val::cgid
mgl_contd_xy_val::cgid
mgl_contf_gen(mglBase*, double, double, mglDataA const*, mglDataA const*, mglDataA const*, mglDataA const*, double, long)
mgl_contf_x_val::cgid
mgl_contf_xy_val::cgid
mgl_contf_y_val::cgid
mgl_contf_z_val::cgid
mgl_contf3_xyz_val::cgid
mgl_contv_gen(mglBase*, double, double, mglDataA const*, mglDataA const*, mglDataA const*, mglDataA const*, double, long)
mgl_contv_xy_val::cgid
mgl_coor_box(mglBase*, mglPoint&)
mgl_corx(void*) [clone ._omp_fn.26]
mgl_corx(void*)
mgl_cory(void*) [clone ._omp_fn.27]
mgl_cory(void*)
mgl_corz(void*) [clone ._omp_fn.28]
mgl_corz(void*)
mgl_cosine_var20(double&, double&, double, double, double const*)
mgl_cosx(void*) [clone ._omp_fn.13]
mgl_cosx(void*)
mgl_cosy(void*) [clone ._omp_fn.14]
mgl_cosy(void*)
mgl_cosz(void*) [clone ._omp_fn.15]
mgl_cosz(void*)
mgl_cprint(double, double, char)
mgl_create_cpp_font(mglBase*, wchar_t const*)
mgl_create_scheme(char const*, long&)
mgl_cresize(void*) [clone ._omp_fn.13]
mgl_cresize(void*)
mgl_cross_var48(double&, double&, double, double, double const*)
mgl_crust(long, mglPoint*, long**, double)
mgl_csmth_x(void*) [clone ._omp_fn.0]
mgl_csmth_x(void*) [clone ._omp_fn.1]
mgl_csmth_x(void*)
mgl_csmth_y(void*) [clone ._omp_fn.2]
mgl_csmth_y(void*) [clone ._omp_fn.3]
mgl_csmth_y(void*)
mgl_csmth_z(void*) [clone ._omp_fn.4]
mgl_csmth_z(void*) [clone ._omp_fn.5]
mgl_csmth_z(void*)
mgl_csum_x(void*) [clone ._omp_fn.11]
mgl_csum_x(void*)
mgl_csum_y(void*) [clone ._omp_fn.10]
mgl_csum_y(void*)
mgl_csum_z(void*) [clone ._omp_fn.9]
mgl_csum_z(void*)
mgl_curl_var39(double&, double&, double, double, double const*)
mgl_curve::cgid
mgl_cylinder_var29(double&, double&, double, double, double const*)
mgl_d_correl(mglDataA const*, mglDataA const*, char const*) [clone ._omp_fn.29]
mgl_d_correl(mglDataA const*, mglDataA const*, char const*) [clone ._omp_fn.30]
mgl_d_correl(mglDataA const*, mglDataA const*, char const*) [clone ._omp_fn.31]
mgl_d_correl(mglDataA const*, mglDataA const*, char const*) [clone ._omp_fn.32]
mgl_d_correl(mglDataA const*, mglDataA const*, char const*) [clone ._omp_fn.33]
mgl_d_correl(mglDataA const*, mglDataA const*, char const*) [clone ._omp_fn.34]
mgl_d_correl(mglDataA const*, mglDataA const*, char const*)
mgl_data_info::buf
mgl_data_pulse_(unsigned int*, char const*, int)
mgl_data_read_hdf4(mglData*, char const*, char const*)
mgl_data_to_string(mglDataA const*, long)
mgl_datac_to_string(mglDataA const*, long)
mgl_dens_xy::cgid
mgl_dens3_xyz::cgid
mgl_dew_xy::cgid
mgl_diamond_var11(double&, double&, double, double, double const*)
mgl_dif_x(void*) [clone ._omp_fn.17]
mgl_dif_x(void*)
mgl_dif_y(void*) [clone ._omp_fn.16]
mgl_dif_y(void*)
mgl_dif_z(void*) [clone ._omp_fn.15]
mgl_dif_z(void*)
mgl_dif2_x(void*) [clone ._omp_fn.20]
mgl_dif2_x(void*)
mgl_dif2_y(void*) [clone ._omp_fn.19]
mgl_dif2_y(void*)
mgl_dif2_z(void*) [clone ._omp_fn.18]
mgl_dif2_z(void*)
mgl_diff_1(void*) [clone ._omp_fn.77]
mgl_diff_1(void*)
mgl_diff_2(void*) [clone ._omp_fn.76]
mgl_diff_2(void*)
mgl_diff_3(void*) [clone ._omp_fn.75]
mgl_diff_3(void*)
mgl_difr(void*) [clone ._omp_fn.57]
mgl_difr(void*)
mgl_difr_axial(std::complex<double>*, int, int, std::complex<double>, int, std::complex<double>*, int, double)
mgl_difr_axial_old(std::complex<double>*, int, int, std::complex<double>, int, std::complex<double>*, std::complex<double>*, int, double)
mgl_difr_grid(std::complex<double>*, int, int, std::complex<double>, int, std::complex<double>*, int)
mgl_difr_grid_old(std::complex<double>*, int, int, std::complex<double>, int, std::complex<double>*, std::complex<double>*, int)
mgl_disc_var8(double&, double&, double, double, double const*)
mgl_dots_ca::cgid
mgl_draw_calc(void*)
mgl_draw_cb(Fl_Widget*, void*)
mgl_draw_curvs(mglBase*, double, double, int, std::vector<mglSegment, std::allocator<mglSegment> > const&)
mgl_drop(mglBase*, mglPoint, mglPoint, double, double, double, double)
mgl_drop(mglBase*, mglPoint, mglPoint, double, double, double, double)::cgid
mgl_drw_grid(mglBase*, double, mglPoint const&, mglPoint const&, mglPoint const&, mglPoint const&, mglPoint const&, mglPoint const&, mglPoint const&)
mgl_ellipse::cgid
mgl_envx(void*) [clone ._omp_fn.5]
mgl_envx(void*)
mgl_envy(void*) [clone ._omp_fn.6]
mgl_envy(void*)
mgl_envz(void*) [clone ._omp_fn.7]
mgl_envz(void*)
mgl_error_box::cgid
mgl_error_exy::cgid
mgl_ex_var12(double&, double&, double, double, double const*)
mgl_exponential_var18(double&, double&, double, double, double const*)
mgl_export_bps_cb(Fl_Widget*, void*)
mgl_export_eps_cb(Fl_Widget*, void*)
mgl_export_jpeg_cb(Fl_Widget*, void*)
mgl_export_obj_cb(Fl_Widget*, void*)
mgl_export_off_cb(Fl_Widget*, void*)
mgl_export_png_cb(Fl_Widget*, void*)
mgl_export_pngn_cb(Fl_Widget*, void*)
mgl_export_prc_cb(Fl_Widget*, void*)
mgl_export_stl_cb(Fl_Widget*, void*)
mgl_export_svg_cb(Fl_Widget*, void*)
mgl_export_tex_cb(Fl_Widget*, void*)
mgl_eyefish_var27(double&, double&, double, double, double const*)
mgl_face::cgid
mgl_fall_xy::cgid
mgl_fan_var22(double&, double&, double, double, double const*)
mgl_fan2_var25(double&, double&, double, double, double const*)
mgl_fftx(void*) [clone ._omp_fn.0]
mgl_fftx(void*)
mgl_ffty(void*) [clone ._omp_fn.1]
mgl_ffty(void*)
mgl_fftz(void*) [clone ._omp_fn.2]
mgl_fftz(void*)
mgl_fgetstr::s
mgl_fill_fit(mglBase*, mglData&, mglData&, mglFitData&, char const*, long, long, long, long)
mgl_find_norm(bool, mglDataA const*, mglDataA const*, mglDataA const*, mglDataA const*, mglPoint, bool, long, long, long)
mgl_find_prev(long, long, long*)
mgl_fisheye_var16(double&, double&, double, double, double const*)
mgl_fit__df(gsl_vector const*, void*, gsl_matrix*) [clone ._omp_fn.1]
mgl_fit__df(gsl_vector const*, void*, gsl_matrix*)
mgl_fit__f(gsl_vector const*, void*, gsl_vector*) [clone ._omp_fn.0]
mgl_fit__f(gsl_vector const*, void*, gsl_vector*)
mgl_fit__fdf(gsl_vector const*, void*, gsl_vector*, gsl_matrix*) [clone ._omp_fn.2]
mgl_fit__fdf(gsl_vector const*, void*, gsl_vector*, gsl_matrix*) [clone ._omp_fn.3]
mgl_fit__fdf(gsl_vector const*, void*, gsl_vector*, gsl_matrix*)
mgl_fit_base(mglFitData&, double*)
mgl_fl_delay(void*)
mgl_fl_next(void*)
mgl_fl_prev(void*)
mgl_fl_reload(void*)
mgl_flame_2d_point(mglDataA const*, mglDataA const*, double&, double&, double)
mgl_flow_xy::cgid
mgl_flow_xyz::cgid
mgl_flowp_xy::cgid
mgl_flowp_xyz::cgid
mgl_fltk_event_func(void*)
mgl_fltk_thr::thr
mgl_fltk_tmp(void*)
mgl_fmax(double, double)
mgl_fmin(double, double)
mgl_format(double, double, bool)
mgl_ftoa(double, char const*)
mgl_funcv(double, void*)
mgl_gaussian_var35(double&, double&, double, double, double const*)
mgl_get_curvs(mglBase*, std::vector<mglSegment, std::allocator<mglSegment> >)
mgl_get_dash(unsigned short, double, char)
mgl_get_dash(unsigned short, double, char)::b
mgl_get_dash(unsigned short, double, char)::s
mgl_get_json::json
mgl_get_lines(double, mglDataA const*, mglDataA const*, mglDataA const*, mglDataA const*, long)
mgl_get_ncol(char const*, char*)
mgl_get_next(long, long, long*, long*, mglPoint*)
mgl_get_norm(double, double, double, double)
mgl_get_slice(_mgl_slice&, mglDataA const*, mglDataA const*, mglDataA const*, mglDataA const*, char, double, bool) [clone ._omp_fn.4]
mgl_get_slice(_mgl_slice&, mglDataA const*, mglDataA const*, mglDataA const*, mglDataA const*, char, double, bool) [clone ._omp_fn.5]
mgl_get_slice(_mgl_slice&, mglDataA const*, mglDataA const*, mglDataA const*, mglDataA const*, char, double, bool) [clone ._omp_fn.6]
mgl_get_slice(_mgl_slice&, mglDataA const*, mglDataA const*, mglDataA const*, mglDataA const*, char, double, bool) [clone ._omp_fn.7]
mgl_get_slice(_mgl_slice&, mglDataA const*, mglDataA const*, mglDataA const*, mglDataA const*, char, double, bool) [clone ._omp_fn.8]
mgl_get_slice(_mgl_slice&, mglDataA const*, mglDataA const*, mglDataA const*, mglDataA const*, char, double, bool) [clone ._omp_fn.9]
mgl_get_slice(_mgl_slice&, mglDataA const*, mglDataA const*, mglDataA const*, mglDataA const*, char, double, bool)
mgl_get_slice(_mgl_vec_slice&, mglDataA const*, mglDataA const*, mglDataA const*, mglDataA const*, mglDataA const*, mglDataA const*, char, double, bool) [clone ._omp_fn.2]
mgl_get_slice(_mgl_vec_slice&, mglDataA const*, mglDataA const*, mglDataA const*, mglDataA const*, mglDataA const*, mglDataA const*, char, double, bool) [clone ._omp_fn.3]
mgl_get_slice(_mgl_vec_slice&, mglDataA const*, mglDataA const*, mglDataA const*, mglDataA const*, mglDataA const*, mglDataA const*, char, double, bool) [clone ._omp_fn.4]
mgl_get_slice(_mgl_vec_slice&, mglDataA const*, mglDataA const*, mglDataA const*, mglDataA const*, mglDataA const*, mglDataA const*, char, double, bool) [clone ._omp_fn.5]
mgl_get_slice(_mgl_vec_slice&, mglDataA const*, mglDataA const*, mglDataA const*, mglDataA const*, mglDataA const*, mglDataA const*, char, double, bool) [clone ._omp_fn.6]
mgl_get_slice(_mgl_vec_slice&, mglDataA const*, mglDataA const*, mglDataA const*, mglDataA const*, mglDataA const*, mglDataA const*, char, double, bool) [clone ._omp_fn.7]
mgl_get_slice(_mgl_vec_slice&, mglDataA const*, mglDataA const*, mglDataA const*, mglDataA const*, mglDataA const*, mglDataA const*, char, double, bool)
mgl_gif_save(char const*, int, int, unsigned char**)
mgl_grid_cb(Fl_Widget*, void*)
mgl_grid_t(void*) [clone ._omp_fn.0]
mgl_grid_t(void*)
mgl_grid_xy::cgid
mgl_grid3_xyz::cgid
mgl_gsplinec_init_(unsigned int*, unsigned int*)
mgl_ham2d(double, double, double, double, double, void*)
mgl_ham3d(double, double, double, double, double, double, double, void*)
mgl_handkerchief_var6(double&, double&, double, double, double const*)
mgl_heart_var7(double&, double&, double, double, double const*)
mgl_hist_1(void*) [clone ._omp_fn.37]
mgl_hist_1(void*)
mgl_hist_2(void*) [clone ._omp_fn.38]
mgl_hist_2(void*)
mgl_hist_p(mglThreadD*, double*) [clone ._omp_fn.36]
mgl_hist_p(mglThreadD*, double*)
mgl_hnkx(void*) [clone ._omp_fn.21]
mgl_hnkx(void*)
mgl_hnky(void*) [clone ._omp_fn.22]
mgl_hnky(void*)
mgl_hnkz(void*) [clone ._omp_fn.23]
mgl_hnkz(void*)
mgl_horseshoe_var4(double&, double&, double, double, double const*)
mgl_hyperbolic_var10(double&, double&, double, double, double const*)
mgl_ifs_2d_point(mglDataA const*, double&, double&, double)
mgl_ifs_3d_point(mglDataA const*, double&, double&, double&, double)
mgl_index_1(double, mglDataA const*)
mgl_init()
mgl_init_ra(long, int, double const*, mgl_ap*)
mgl_insert_trig(long, long, long, long**)
mgl_insert_trig(long, long, long, long**)::Cur
mgl_insert_trig(long, long, long, long**)::Max
mgl_int_x(void*) [clone ._omp_fn.14]
mgl_int_x(void*)
mgl_int_y(void*) [clone ._omp_fn.13]
mgl_int_y(void*)
mgl_int_z(void*) [clone ._omp_fn.12]
mgl_int_z(void*)
mgl_internal_code(unsigned int, std::vector<mglGlyphDescr, std::allocator<mglGlyphDescr> > const&)
mgl_is_same(mglBase*, long, double, unsigned int, int)
mgl_isboth(mglDataA const*, mglDataA const*, mglDataA const*, mglDataA const*)
mgl_isnboth(mglDataA const*, mglDataA const*, mglDataA const*, mglDataA const*)
mgl_jacob2(void*) [clone ._omp_fn.30]
mgl_jacob2(void*)
mgl_jacob3(void*) [clone ._omp_fn.32]
mgl_jacob3(void*)
mgl_jpeg_save(char const*, int, int, unsigned char**)
mgl_julia_var13(double&, double&, double, double, double const*)
mgl_juliaN_var32(double&, double&, double, double, double const*)
mgl_juliaScope_var33(double&, double&, double, double, double const*)
mgl_labelw_xyz::cgid
mgl_lamerey::cgid
mgl_light_cb(Fl_Widget*, void*)
mgl_line::cgid
mgl_linear_var0(double&, double&, double, double, double const*)
mgl_logo::cgid
mgl_makemenu_fltk(Fl_Menu_*, Fl_MGLView*)
mgl_map_xy::cgid
mgl_mark::cgid
mgl_mark_xyz::cgid
mgl_max_x(void*) [clone ._omp_fn.15]
mgl_max_x(void*)
mgl_max_y(void*) [clone ._omp_fn.14]
mgl_max_y(void*)
mgl_max_z(void*) [clone ._omp_fn.13]
mgl_max_z(void*)
mgl_mesh_plot(mglBase*, long*, long, long, int)
mgl_mesh_xy::cgid
mgl_min_x(void*) [clone ._omp_fn.19]
mgl_min_x(void*)
mgl_min_y(void*) [clone ._omp_fn.18]
mgl_min_y(void*)
mgl_min_z(void*) [clone ._omp_fn.17]
mgl_min_z(void*)
mgl_modify(void*) [clone ._omp_fn.34]
mgl_modify(void*)
mgl_next_data::path
mgl_next_data::pos
mgl_ngon_var38(double&, double&, double, double, double const*)
mgl_no_cb(Fl_Widget*, void*)
mgl_noise_var31(double&, double&, double, double, double const*)
mgl_norm_cb(Fl_Widget*, void*)
mgl_normal_1d(mglDataA const*, double, long)
mgl_normal_3d(mglDataA const*, mglPoint, bool, long, long, long)
mgl_obj_glyph_old(mglBase*, mglPrim const&, mglPnt const&, _iobuf*)
mgl_obj_prim_old(mglBase*, mglPrim const&, mglPnt const&, _iobuf*, double)
mgl_ohlc_x::cgid
mgl_omod(double*, double, int, int)
mgl_oncemore_cb(Fl_Widget*, void*)
mgl_operator_exp(long, std::complex<double>*, std::complex<double>*, std::complex<double>*) [clone ._omp_fn.0]
mgl_operator_exp(long, std::complex<double>*, std::complex<double>*, std::complex<double>*) [clone ._omp_fn.1]
mgl_operator_exp(long, std::complex<double>*, std::complex<double>*, std::complex<double>*)
mgl_operator_hrm(long, std::complex<double>*, std::complex<double>*, std::complex<double>*, std::complex<double>*, std::complex<double>*) [clone ._omp_fn.2]
mgl_operator_hrm(long, std::complex<double>*, std::complex<double>*, std::complex<double>*, std::complex<double>*, std::complex<double>*) [clone ._omp_fn.3]
mgl_operator_hrm(long, std::complex<double>*, std::complex<double>*, std::complex<double>*, std::complex<double>*, std::complex<double>*)
mgl_operator_lin(long, std::complex<double>*, std::complex<double>*, std::complex<double>*, std::complex<double>*, std::complex<double>*) [clone ._omp_fn.4]
mgl_operator_lin(long, std::complex<double>*, std::complex<double>*, std::complex<double>*, std::complex<double>*, std::complex<double>*) [clone ._omp_fn.5]
mgl_operator_lin(long, std::complex<double>*, std::complex<double>*, std::complex<double>*, std::complex<double>*, std::complex<double>*)
mgl_pause_cb(Fl_Widget*, void*)
mgl_pde_hprep(mgl_pde_ham const*) [clone ._omp_fn.10]
mgl_pde_hprep(mgl_pde_ham const*) [clone ._omp_fn.11]
mgl_pde_hprep(mgl_pde_ham const*) [clone ._omp_fn.12]
mgl_pde_hprep(mgl_pde_ham const*) [clone ._omp_fn.13]
mgl_pde_hprep(mgl_pde_ham const*) [clone ._omp_fn.9]
mgl_pde_hprep(mgl_pde_ham const*)
mgl_pdj_var24(double&, double&, double, double, double const*)
mgl_perspective_var30(double&, double&, double, double, double const*)
mgl_pie_var37(double&, double&, double, double, double const*)
mgl_pipe_xy::cgid
mgl_pipe_xyz::cgid
mgl_plot_xyz::cgid
mgl_pmap_xyz::cgid
mgl_png_save(char const*, int, int, unsigned char**)
mgl_pnga_save(char const*, int, int, unsigned char**)
mgl_polar_var5(double&, double&, double, double, double const*)
mgl_polygon::cgid
mgl_popcorn_var17(double&, double&, double, double, double const*)
mgl_power_var19(double&, double&, double, double, double const*)
mgl_printf(void*, bool, char const*, ...)
mgl_printf(void*, bool, char const*, ...)::buf
mgl_prm_cmp(void const*, void const*)
mgl_prm_swap(mglPrim&, mglPrim&, mglPrim*)
mgl_progonka_hc(mglDataA const*, mglDataA const*, mglDataA const*, mglDataA const*, std::complex<double>*, long, long, long, bool)
mgl_progonka_hr(mglDataA const*, mglDataA const*, mglDataA const*, mglDataA const*, double*, long, long, long, bool)
mgl_progonka_pc(mglDataA const*, mglDataA const*, mglDataA const*, mglDataA const*, std::complex<double>*, long, long, long, long, bool)
mgl_progonka_pr(mglDataA const*, mglDataA const*, mglDataA const*, mglDataA const*, double*, long, long, long, long, bool)
mgl_progonka_sc(mglDataA const*, mglDataA const*, mglDataA const*, mglDataA const*, std::complex<double>*, long, long, long, long, bool)
mgl_progonka_sr(mglDataA const*, mglDataA const*, mglDataA const*, mglDataA const*, double*, long, long, long, long, bool)
mgl_pulse_x(void*) [clone ._omp_fn.42]
mgl_pulse_x(void*)
mgl_pulse_y(void*) [clone ._omp_fn.41]
mgl_pulse_y(void*)
mgl_pulse_z(void*) [clone ._omp_fn.40]
mgl_pulse_z(void*)
mgl_putsw_dir::cgid
mgl_qo2d_hprep(void*) [clone ._omp_fn.22]
mgl_qo2d_hprep(void*)
mgl_qo3d_hprep(void*) [clone ._omp_fn.23]
mgl_qo3d_hprep(void*)
mgl_qo3d_post(void*) [clone ._omp_fn.24]
mgl_qo3d_post(void*)
mgl_qt_event_func(void*)
mgl_quadplot_xyzc::cgid
mgl_quit_cb(Fl_Widget*, void*)
mgl_radialBlur_var36(double&, double&, double, double, double const*)
mgl_ray3d(double const*, double*, void*)
mgl_rays_var43(double&, double&, double, double, double const*)
mgl_read_gz(gzFile_s*)
mgl_read_image(unsigned char**, int&, int&, char const*) [clone ._omp_fn.0]
mgl_read_image(unsigned char**, int&, int&, char const*) [clone ._omp_fn.1]
mgl_read_image(unsigned char**, int&, int&, char const*) [clone ._omp_fn.2]
mgl_read_image(unsigned char**, int&, int&, char const*) [clone ._omp_fn.3]
mgl_read_image(unsigned char**, int&, int&, char const*) [clone ._omp_fn.4]
mgl_read_image(unsigned char**, int&, int&, char const*)
mgl_rectangles_var40(double&, double&, double, double, double const*)
mgl_region_3d::cgid
mgl_region_xy::cgid
mgl_resize(void*) [clone ._omp_fn.7]
mgl_resize(void*)
mgl_rhomb::cgid
mgl_rings_var21(double&, double&, double, double, double const*)
mgl_rings2_var26(double&, double&, double, double, double const*)
mgl_rotate_cb(Fl_Widget*, void*)
mgl_sd_cb(Fl_Widget*, void*)
mgl_secant_var45(double&, double&, double, double, double const*)
mgl_sew_x(void*) [clone ._omp_fn.48]
mgl_sew_x(void*)
mgl_sew_y(void*) [clone ._omp_fn.47]
mgl_sew_y(void*)
mgl_sew_z(void*) [clone ._omp_fn.46]
mgl_sew_z(void*)
mgl_sinusoidal_var1(double&, double&, double, double, double const*)
mgl_sinx(void*) [clone ._omp_fn.10]
mgl_sinx(void*)
mgl_siny(void*) [clone ._omp_fn.11]
mgl_siny(void*)
mgl_sinz(void*) [clone ._omp_fn.12]
mgl_sinz(void*)
mgl_sl_cb(Fl_Widget*, void*)
mgl_smth_x(void*) [clone ._omp_fn.0]
mgl_smth_x(void*) [clone ._omp_fn.1]
mgl_smth_x(void*) [clone ._omp_fn.2]
mgl_smth_x(void*)
mgl_smth_y(void*) [clone ._omp_fn.3]
mgl_smth_y(void*) [clone ._omp_fn.4]
mgl_smth_y(void*) [clone ._omp_fn.5]
mgl_smth_y(void*)
mgl_smth_z(void*) [clone ._omp_fn.6]
mgl_smth_z(void*) [clone ._omp_fn.7]
mgl_smth_z(void*) [clone ._omp_fn.8]
mgl_smth_z(void*)
mgl_snext_cb(Fl_Widget*, void*)
mgl_so_cb(Fl_Widget*, void*)
mgl_solve_x(void*) [clone ._omp_fn.28]
mgl_solve_x(void*)
mgl_solve_y(void*) [clone ._omp_fn.29]
mgl_solve_y(void*)
mgl_solve_z(void*) [clone ._omp_fn.30]
mgl_solve_z(void*)
mgl_spherical_var2(double&, double&, double, double, double const*)
mgl_spiral_var9(double&, double&, double, double, double const*)
mgl_sprev_cb(Fl_Widget*, void*)
mgl_sprintf(char const*, ...)
mgl_square_var43(double&, double&, double, double, double const*)
mgl_sr_cb(Fl_Widget*, void*)
mgl_sshow_cb(Fl_Widget*, void*)
mgl_stem_xy::cgid
mgl_stem_xyz::cgid
mgl_step_xy::cgid
mgl_step_xyz::cgid
mgl_stfa1(void*) [clone ._omp_fn.8]
mgl_stfa1(void*)
mgl_stfa2(void*) [clone ._omp_fn.9]
mgl_stfa2(void*)
mgl_stop_cb(Fl_Widget*, void*)
mgl_str_copy(char const*)
mgl_strdup(char const*)
mgl_string_curve(mglBase*, long, long, long const*, long const*, wchar_t const*, char const*, double)
mgl_su_cb(Fl_Widget*, void*)
mgl_subplot_d_(unsigned int*, int*, int*, int*, char const*, double*, double*, int)
mgl_sum_x(void*) [clone ._omp_fn.11]
mgl_sum_x(void*)
mgl_sum_y(void*) [clone ._omp_fn.10]
mgl_sum_y(void*)
mgl_sum_z(void*) [clone ._omp_fn.9]
mgl_sum_z(void*)
mgl_sumc_x(void*) [clone ._omp_fn.20]
mgl_sumc_x(void*)
mgl_sumc_y(void*) [clone ._omp_fn.19]
mgl_sumc_y(void*)
mgl_sumc_z(void*) [clone ._omp_fn.18]
mgl_sumc_z(void*)
mgl_surf_gen(mglBase*, mglDataA const*, mglDataA const*, mglDataA const*, mglDataA const*, mglDataA const*, char const*)
mgl_surf_plot(mglBase*, long*, long, long)
mgl_surf_xy::cgid
mgl_surf3_plot(mglBase*, long, long, long*, long*, long*, long*, long*, std::vector<mglPoint, std::allocator<mglPoint> >, int) [clone ._omp_fn.0]
mgl_surf3_plot(mglBase*, long, long, long*, long*, long*, long*, long*, std::vector<mglPoint, std::allocator<mglPoint> >, int)
mgl_surf3_xyz_val::cgid
mgl_surf3a_xyz_val::cgid
mgl_surf3c_xyz_val::cgid
mgl_surf3ca_gen(mglBase*, double, mglDataA const*, mglDataA const*, mglDataA const*, mglDataA const*, mglDataA const*, mglDataA const*, char const*)
mgl_surf3ca_xyz_val::cgid
mgl_surfa_xy::cgid
mgl_surfc_xy::cgid
mgl_surfca_xy::cgid
mgl_swirl_var3(double&, double&, double, double, double const*)
mgl_sz_cb(Fl_Widget*, void*)
mgl_tangent_var42(double&, double&, double, double, double const*)
mgl_tape_xyz::cgid
mgl_tens_xyz::cgid
mgl_tex_symb
mgl_tex_symb_cmp(void const*, void const*)
mgl_textmarkw_xyzr::cgid
mgl_textw_xyz::cgid
mgl_tga_save(char const*, int, int, unsigned char**)
mgl_tick_ext(double, double, wchar_t*, double&)
mgl_tick_text(double, double, double, double, int, std::basic_string<wchar_t, std::char_traits<wchar_t>, std::allocator<wchar_t> > const&, double, char const*)
mgl_tile_xy::cgid
mgl_tiles_xy::cgid
mgl_time_cb(void*)
mgl_torus::cgid
mgl_traj_xyz::cgid
mgl_tri_lines(double, mglDataA const*, mglDataA const*, mglDataA const*, mglDataA const*, mglDataA const*)
mgl_triangulation_2d::float_eps
mgl_tricont_xyzcv::cgid
mgl_tricontv_xyzcv::cgid
mgl_trim_ws(std::basic_string<wchar_t, std::char_traits<wchar_t>, std::allocator<wchar_t> > const&)
mgl_triplot_xyzc::cgid
mgl_tube_xyzr::cgid
mgl_twintrian_var47(double&, double&, double, double, double const*)
mgl_txt_func(double const*, double*, void*) [clone ._omp_fn.21]
mgl_txt_func(double const*, double*, void*)
mgl_vect_xy::cgid
mgl_vect_xyz::cgid
mgl_vect3_xyz::cgid
mgl_waves_var15(double&, double&, double, double, double const*)
mgl_write_x3d(mglBase*, char const*, char const*)
mgl_write_x3d_(unsigned int*, char const*, char const*, int, int)
mgl_x3d_mdef(mglBase*, void*, bool)
mgl_x3d_prim(mglPrim const&, mglPnt const&, long const*, void*, bool, double)
mgl_zoom_cb(Fl_Widget*, void*)
mglApplyFunc(std::basic_string<wchar_t, std::char_traits<wchar_t>, std::allocator<wchar_t> >, mglParser*, std::vector<mglDataA*, std::allocator<mglDataA*> > const&, double (*)(double)) [clone ._omp_fn.0]
mglApplyFunc(std::basic_string<wchar_t, std::char_traits<wchar_t>, std::allocator<wchar_t> >, mglParser*, std::vector<mglDataA*, std::allocator<mglDataA*> > const&, double (*)(double))
mglApplyFuncC(std::basic_string<wchar_t, std::char_traits<wchar_t>, std::allocator<wchar_t> >, mglParser*, std::vector<mglDataA*, std::allocator<mglDataA*> > const&, std::complex<double> (*)(std::complex<double>)) [clone ._omp_fn.16]
mglApplyFuncC(std::basic_string<wchar_t, std::char_traits<wchar_t>, std::allocator<wchar_t> >, mglParser*, std::vector<mglDataA*, std::allocator<mglDataA*> > const&, std::complex<double> (*)(std::complex<double>))
mglApplyFuncGSL(std::basic_string<wchar_t, std::char_traits<wchar_t>, std::allocator<wchar_t> >, mglParser*, std::vector<mglDataA*, std::allocator<mglDataA*> > const&, double (*)(double, unsigned int)) [clone ._omp_fn.1]
mglApplyFuncGSL(std::basic_string<wchar_t, std::char_traits<wchar_t>, std::allocator<wchar_t> >, mglParser*, std::vector<mglDataA*, std::allocator<mglDataA*> > const&, double (*)(double, unsigned int))
mglApplyOper(std::basic_string<wchar_t, std::char_traits<wchar_t>, std::allocator<wchar_t> >, std::basic_string<wchar_t, std::char_traits<wchar_t>, std::allocator<wchar_t> >, mglParser*, std::vector<mglDataA*, std::allocator<mglDataA*> > const&, double (*)(double, double)) [clone ._omp_fn.2]
mglApplyOper(std::basic_string<wchar_t, std::char_traits<wchar_t>, std::allocator<wchar_t> >, std::basic_string<wchar_t, std::char_traits<wchar_t>, std::allocator<wchar_t> >, mglParser*, std::vector<mglDataA*, std::allocator<mglDataA*> > const&, double (*)(double, double)) [clone ._omp_fn.3]
mglApplyOper(std::basic_string<wchar_t, std::char_traits<wchar_t>, std::allocator<wchar_t> >, std::basic_string<wchar_t, std::char_traits<wchar_t>, std::allocator<wchar_t> >, mglParser*, std::vector<mglDataA*, std::allocator<mglDataA*> > const&, double (*)(double, double)) [clone ._omp_fn.4]
mglApplyOper(std::basic_string<wchar_t, std::char_traits<wchar_t>, std::allocator<wchar_t> >, std::basic_string<wchar_t, std::char_traits<wchar_t>, std::allocator<wchar_t> >, mglParser*, std::vector<mglDataA*, std::allocator<mglDataA*> > const&, double (*)(double, double))
mglApplyOperAdd(std::basic_string<wchar_t, std::char_traits<wchar_t>, std::allocator<wchar_t> >, std::basic_string<wchar_t, std::char_traits<wchar_t>, std::allocator<wchar_t> >, mglParser*, std::vector<mglDataA*, std::allocator<mglDataA*> > const&) [clone ._omp_fn.5]
mglApplyOperAdd(std::basic_string<wchar_t, std::char_traits<wchar_t>, std::allocator<wchar_t> >, std::basic_string<wchar_t, std::char_traits<wchar_t>, std::allocator<wchar_t> >, mglParser*, std::vector<mglDataA*, std::allocator<mglDataA*> > const&) [clone ._omp_fn.6]
mglApplyOperAdd(std::basic_string<wchar_t, std::char_traits<wchar_t>, std::allocator<wchar_t> >, std::basic_string<wchar_t, std::char_traits<wchar_t>, std::allocator<wchar_t> >, mglParser*, std::vector<mglDataA*, std::allocator<mglDataA*> > const&)
mglApplyOperAddC(std::basic_string<wchar_t, std::char_traits<wchar_t>, std::allocator<wchar_t> >, std::basic_string<wchar_t, std::char_traits<wchar_t>, std::allocator<wchar_t> >, mglParser*, std::vector<mglDataA*, std::allocator<mglDataA*> > const&) [clone ._omp_fn.20]
mglApplyOperAddC(std::basic_string<wchar_t, std::char_traits<wchar_t>, std::allocator<wchar_t> >, std::basic_string<wchar_t, std::char_traits<wchar_t>, std::allocator<wchar_t> >, mglParser*, std::vector<mglDataA*, std::allocator<mglDataA*> > const&) [clone ._omp_fn.21]
mglApplyOperAddC(std::basic_string<wchar_t, std::char_traits<wchar_t>, std::allocator<wchar_t> >, std::basic_string<wchar_t, std::char_traits<wchar_t>, std::allocator<wchar_t> >, mglParser*, std::vector<mglDataA*, std::allocator<mglDataA*> > const&)
mglApplyOperC(std::basic_string<wchar_t, std::char_traits<wchar_t>, std::allocator<wchar_t> >, std::basic_string<wchar_t, std::char_traits<wchar_t>, std::allocator<wchar_t> >, mglParser*, std::vector<mglDataA*, std::allocator<mglDataA*> > const&, std::complex<double> (*)(std::complex<double>, std::complex<double>)) [clone ._omp_fn.17]
mglApplyOperC(std::basic_string<wchar_t, std::char_traits<wchar_t>, std::allocator<wchar_t> >, std::basic_string<wchar_t, std::char_traits<wchar_t>, std::allocator<wchar_t> >, mglParser*, std::vector<mglDataA*, std::allocator<mglDataA*> > const&, std::complex<double> (*)(std::complex<double>, std::complex<double>)) [clone ._omp_fn.18]
mglApplyOperC(std::basic_string<wchar_t, std::char_traits<wchar_t>, std::allocator<wchar_t> >, std::basic_string<wchar_t, std::char_traits<wchar_t>, std::allocator<wchar_t> >, mglParser*, std::vector<mglDataA*, std::allocator<mglDataA*> > const&, std::complex<double> (*)(std::complex<double>, std::complex<double>)) [clone ._omp_fn.19]
mglApplyOperC(std::basic_string<wchar_t, std::char_traits<wchar_t>, std::allocator<wchar_t> >, std::basic_string<wchar_t, std::char_traits<wchar_t>, std::allocator<wchar_t> >, mglParser*, std::vector<mglDataA*, std::allocator<mglDataA*> > const&, std::complex<double> (*)(std::complex<double>, std::complex<double>))
mglApplyOperDiv(std::basic_string<wchar_t, std::char_traits<wchar_t>, std::allocator<wchar_t> >, std::basic_string<wchar_t, std::char_traits<wchar_t>, std::allocator<wchar_t> >, mglParser*, std::vector<mglDataA*, std::allocator<mglDataA*> > const&) [clone ._omp_fn.12]
mglApplyOperDiv(std::basic_string<wchar_t, std::char_traits<wchar_t>, std::allocator<wchar_t> >, std::basic_string<wchar_t, std::char_traits<wchar_t>, std::allocator<wchar_t> >, mglParser*, std::vector<mglDataA*, std::allocator<mglDataA*> > const&) [clone ._omp_fn.13]
mglApplyOperDiv(std::basic_string<wchar_t, std::char_traits<wchar_t>, std::allocator<wchar_t> >, std::basic_string<wchar_t, std::char_traits<wchar_t>, std::allocator<wchar_t> >, mglParser*, std::vector<mglDataA*, std::allocator<mglDataA*> > const&) [clone ._omp_fn.14]
mglApplyOperDiv(std::basic_string<wchar_t, std::char_traits<wchar_t>, std::allocator<wchar_t> >, std::basic_string<wchar_t, std::char_traits<wchar_t>, std::allocator<wchar_t> >, mglParser*, std::vector<mglDataA*, std::allocator<mglDataA*> > const&) [clone ._omp_fn.15]
mglApplyOperDiv(std::basic_string<wchar_t, std::char_traits<wchar_t>, std::allocator<wchar_t> >, std::basic_string<wchar_t, std::char_traits<wchar_t>, std::allocator<wchar_t> >, mglParser*, std::vector<mglDataA*, std::allocator<mglDataA*> > const&)
mglApplyOperDivC(std::basic_string<wchar_t, std::char_traits<wchar_t>, std::allocator<wchar_t> >, std::basic_string<wchar_t, std::char_traits<wchar_t>, std::allocator<wchar_t> >, mglParser*, std::vector<mglDataA*, std::allocator<mglDataA*> > const&) [clone ._omp_fn.27]
mglApplyOperDivC(std::basic_string<wchar_t, std::char_traits<wchar_t>, std::allocator<wchar_t> >, std::basic_string<wchar_t, std::char_traits<wchar_t>, std::allocator<wchar_t> >, mglParser*, std::vector<mglDataA*, std::allocator<mglDataA*> > const&) [clone ._omp_fn.28]
mglApplyOperDivC(std::basic_string<wchar_t, std::char_traits<wchar_t>, std::allocator<wchar_t> >, std::basic_string<wchar_t, std::char_traits<wchar_t>, std::allocator<wchar_t> >, mglParser*, std::vector<mglDataA*, std::allocator<mglDataA*> > const&) [clone ._omp_fn.29]
mglApplyOperDivC(std::basic_string<wchar_t, std::char_traits<wchar_t>, std::allocator<wchar_t> >, std::basic_string<wchar_t, std::char_traits<wchar_t>, std::allocator<wchar_t> >, mglParser*, std::vector<mglDataA*, std::allocator<mglDataA*> > const&) [clone ._omp_fn.30]
mglApplyOperDivC(std::basic_string<wchar_t, std::char_traits<wchar_t>, std::allocator<wchar_t> >, std::basic_string<wchar_t, std::char_traits<wchar_t>, std::allocator<wchar_t> >, mglParser*, std::vector<mglDataA*, std::allocator<mglDataA*> > const&)
mglApplyOperMul(std::basic_string<wchar_t, std::char_traits<wchar_t>, std::allocator<wchar_t> >, std::basic_string<wchar_t, std::char_traits<wchar_t>, std::allocator<wchar_t> >, mglParser*, std::vector<mglDataA*, std::allocator<mglDataA*> > const&) [clone ._omp_fn.10]
mglApplyOperMul(std::basic_string<wchar_t, std::char_traits<wchar_t>, std::allocator<wchar_t> >, std::basic_string<wchar_t, std::char_traits<wchar_t>, std::allocator<wchar_t> >, mglParser*, std::vector<mglDataA*, std::allocator<mglDataA*> > const&) [clone ._omp_fn.11]
mglApplyOperMul(std::basic_string<wchar_t, std::char_traits<wchar_t>, std::allocator<wchar_t> >, std::basic_string<wchar_t, std::char_traits<wchar_t>, std::allocator<wchar_t> >, mglParser*, std::vector<mglDataA*, std::allocator<mglDataA*> > const&)
mglApplyOperMulC(std::basic_string<wchar_t, std::char_traits<wchar_t>, std::allocator<wchar_t> >, std::basic_string<wchar_t, std::char_traits<wchar_t>, std::allocator<wchar_t> >, mglParser*, std::vector<mglDataA*, std::allocator<mglDataA*> > const&) [clone ._omp_fn.25]
mglApplyOperMulC(std::basic_string<wchar_t, std::char_traits<wchar_t>, std::allocator<wchar_t> >, std::basic_string<wchar_t, std::char_traits<wchar_t>, std::allocator<wchar_t> >, mglParser*, std::vector<mglDataA*, std::allocator<mglDataA*> > const&) [clone ._omp_fn.26]
mglApplyOperMulC(std::basic_string<wchar_t, std::char_traits<wchar_t>, std::allocator<wchar_t> >, std::basic_string<wchar_t, std::char_traits<wchar_t>, std::allocator<wchar_t> >, mglParser*, std::vector<mglDataA*, std::allocator<mglDataA*> > const&)
mglApplyOperSub(std::basic_string<wchar_t, std::char_traits<wchar_t>, std::allocator<wchar_t> >, std::basic_string<wchar_t, std::char_traits<wchar_t>, std::allocator<wchar_t> >, mglParser*, std::vector<mglDataA*, std::allocator<mglDataA*> > const&) [clone ._omp_fn.7]
mglApplyOperSub(std::basic_string<wchar_t, std::char_traits<wchar_t>, std::allocator<wchar_t> >, std::basic_string<wchar_t, std::char_traits<wchar_t>, std::allocator<wchar_t> >, mglParser*, std::vector<mglDataA*, std::allocator<mglDataA*> > const&) [clone ._omp_fn.8]
mglApplyOperSub(std::basic_string<wchar_t, std::char_traits<wchar_t>, std::allocator<wchar_t> >, std::basic_string<wchar_t, std::char_traits<wchar_t>, std::allocator<wchar_t> >, mglParser*, std::vector<mglDataA*, std::allocator<mglDataA*> > const&) [clone ._omp_fn.9]
mglApplyOperSub(std::basic_string<wchar_t, std::char_traits<wchar_t>, std::allocator<wchar_t> >, std::basic_string<wchar_t, std::char_traits<wchar_t>, std::allocator<wchar_t> >, mglParser*, std::vector<mglDataA*, std::allocator<mglDataA*> > const&)
mglApplyOperSubC(std::basic_string<wchar_t, std::char_traits<wchar_t>, std::allocator<wchar_t> >, std::basic_string<wchar_t, std::char_traits<wchar_t>, std::allocator<wchar_t> >, mglParser*, std::vector<mglDataA*, std::allocator<mglDataA*> > const&) [clone ._omp_fn.22]
mglApplyOperSubC(std::basic_string<wchar_t, std::char_traits<wchar_t>, std::allocator<wchar_t> >, std::basic_string<wchar_t, std::char_traits<wchar_t>, std::allocator<wchar_t> >, mglParser*, std::vector<mglDataA*, std::allocator<mglDataA*> > const&) [clone ._omp_fn.23]
mglApplyOperSubC(std::basic_string<wchar_t, std::char_traits<wchar_t>, std::allocator<wchar_t> >, std::basic_string<wchar_t, std::char_traits<wchar_t>, std::allocator<wchar_t> >, mglParser*, std::vector<mglDataA*, std::allocator<mglDataA*> > const&) [clone ._omp_fn.24]
mglApplyOperSubC(std::basic_string<wchar_t, std::char_traits<wchar_t>, std::allocator<wchar_t> >, std::basic_string<wchar_t, std::char_traits<wchar_t>, std::allocator<wchar_t> >, mglParser*, std::vector<mglDataA*, std::allocator<mglDataA*> > const&)
mglArg::~mglArg()
mglAxis::~mglAxis()
mglAxis::AddLabel(std::basic_string<wchar_t, std::char_traits<wchar_t>, std::allocator<wchar_t> > const&, double)
mglAxis::AddLabel(wchar_t const*, double)
mglAxis::Clear()
mglAxis::mglAxis()
mglAxis::mglAxis(mglAxis const&)
mglBase::~mglBase()
mglBase::~mglBase()
mglBase::~mglBase()
mglBase::AddActive(long, int)
mglBase::AddGlyph(int, long)
mglBase::AddLegend(char const*, char const*)
mglBase::AddLegend(wchar_t const*, char const*)
mglBase::AddPnt(mglMatrix const*, mglPoint, double, mglPoint, double, int)
mglBase::AddPnt(mglPoint, double, mglPoint, double, int)
mglBase::AddTexture(char const*, int)
mglBase::AddTexture(mglColor)
mglBase::AdjustZMin()
mglBase::Alpha(bool)
mglBase::AskStop(bool)
mglBase::AttachLight(bool)
mglBase::ClearEq()
mglBase::ClearLegend()
mglBase::ClearPrmInd()
mglBase::ClearUnused()
mglBase::clr(unsigned int)
mglBase::CopyFont(mglBase*)
mglBase::CopyNtoC(long, double)
mglBase::CopyProj(long, mglPoint, mglPoint, short)
mglBase::CRange(double, double, bool)
mglBase::CRange(mglDataA const*, bool, double)
mglBase::CutOff(char const*)
mglBase::DefColor(mglColor)
mglBase::FontFactor() const
mglBase::get(unsigned int) const
mglBase::GetA(double) const
mglBase::GetArrowSize() const
mglBase::GetB() const
mglBase::GetC(long, double, bool) const
mglBase::GetClrC(long) const
mglBase::GetFont()
mglBase::GetGlf(long) const
mglBase::GetHeight() const
mglBase::GetNumPal(long) const
mglBase::GetPenWidth()
mglBase::GetPnt(long) const
mglBase::GetPntC(long) const
mglBase::GetPntNum() const
mglBase::GetPntP(long) const
mglBase::GetPrm(long, bool) const
mglBase::GetPrm(long, bool)
mglBase::GetPrmNum() const
mglBase::GetPtx(long) const
mglBase::GetQuality() const
mglBase::GetRatio() const
mglBase::GetTxt(long) const
mglBase::GetTxtNum() const
mglBase::GetWarn() const
mglBase::GetWidth() const
mglBase::Highlight(int)
mglBase::Light(bool)
mglBase::LoadFont(char const*, char const*)
mglBase::LoadState()
mglBase::mark_size()
mglBase::mglBase()
mglBase::mglBase()
mglBase::NeedStop()
mglBase::NextColor(long&)
mglBase::NextColor(long, long)
mglBase::PrmCmp(long, long) const
mglBase::RecalcBorder()
mglBase::RecalcCRange()
mglBase::Reserve(long)
mglBase::ResetMask()
mglBase::RestoreFont()
mglBase::SaveState(char const*)
mglBase::ScalePoint(mglMatrix const*, mglPoint&, mglPoint&, bool) const
mglBase::set(bool, unsigned int)
mglBase::set(unsigned int)
mglBase::SetAlphaDef(double)
mglBase::SetAmbient(double)
mglBase::SetArrowSize(double)
mglBase::SetAutoRanges(double, double, double, double, double, double, double, double)
mglBase::SetBarWidth(double)
mglBase::SetCoor(int)
mglBase::SetCut(bool)
mglBase::SetCutBox(double, double, double, double, double, double)
mglBase::SetDefScheme(char const*)
mglBase::SetDiffuse(double)
mglBase::SetDifLight(bool)
mglBase::SetDrawReg(long, long, long)
mglBase::SetEventFunc(void (*)(void*), void*)
mglBase::SetFBord(double, double, double)
mglBase::SetFontDef(char const*)
mglBase::SetFontSize(double)
mglBase::SetFontSizePT(double, int)
mglBase::SetFunc(char const*, char const*, char const*, char const*)
mglBase::SetMarkSize(double)
mglBase::SetMask(char const*)
mglBase::SetMaskAngle(int)
mglBase::SetMeshNum(int)
mglBase::SetOrigin(double, double, double, double)
mglBase::SetPalette(char const*)
mglBase::SetPenPal(char const*, long*, bool)
mglBase::SetQuality(int)
mglBase::SetRanges(double, double, double, double, double, double, double, double)
mglBase::SetRanges(mglPoint, mglPoint)
mglBase::SetReduceAcc(bool)
mglBase::SetRGBA(long, mglColor const&)
mglBase::SetRotatedText(bool)
mglBase::SetTickRotate(bool)
mglBase::SetTickSkip(bool)
mglBase::SetWarn(int, char const*)
mglBase::StartGroup(char const*, int)
mglBase::Ternary(int)
mglBase::Ternary(int)::c
mglBase::Ternary(int)::o
mglBase::Ternary(int)::x1
mglBase::Ternary(int)::x2
mglBase::TextHeight(char const*, double) const
mglBase::TextWidth(char const*, char const*, double) const
mglBase::TextWidth(wchar_t const*, char const*, double) const
mglBase::vect_plot(long, long, double)
mglBase::XRange(double, double, bool)
mglBase::XRange(mglDataA const*, bool, double)
mglBase::YRange(double, double, bool)
mglBase::YRange(mglDataA const*, bool, double)
mglBase::ZoomAxis(mglPoint, mglPoint)
mglBase::ZRange(double, double, bool)
mglBase::ZRange(mglDataA const*, bool, double)
mglBlock::mglBlock()
mglBlock::mglBlock(mglBlock const&)
mglBlock::operator=(mglBlock const&)
mglCanvas::~mglCanvas()
mglCanvas::~mglCanvas()
mglCanvas::~mglCanvas()
mglCanvas::add_prim(mglPrim&)
mglCanvas::AddLight(int, mglPoint, char, double, double)
mglCanvas::AddLight(int, mglPoint, mglPoint, char, double, double)
mglCanvas::AddTick(char, double, char const*)
mglCanvas::AddTick(char, double, wchar_t const*)
mglCanvas::AdjustTicks(char const*, bool, std::basic_string<char, std::char_traits<char>, std::allocator<char> >)
mglCanvas::AdjustTicks(mglAxis&, bool)
mglCanvas::arrow_draw(long, long, char, float)
mglCanvas::arrow_plot(long, long, char)
mglCanvas::arrow_plot_3d(long, long, char, float)
mglCanvas::Aspect(double, double, double)
mglCanvas::Axis(char const*, char const*, char const*)
mglCanvas::Box(char const*, bool)
mglCanvas::Box(char const*, bool)::cgid
mglCanvas::CalcScr(mglPoint) const
mglCanvas::CalcScr(mglPoint, int*, int*) const
mglCanvas::CalcXYZ(int, int, bool) const
mglCanvas::ClearFrame()
mglCanvas::Clf(char const*)
mglCanvas::Clf(mglColor)
mglCanvas::ClfZB(bool) [clone ._omp_fn.16]
mglCanvas::ClfZB(bool)
mglCanvas::CloseGIF()
mglCanvas::col2int(mglPnt const&, unsigned char*, int) const
mglCanvas::Colorbar(char const*)
mglCanvas::Colorbar(char const*, double, double, double, double)
mglCanvas::Colorbar(mglDataA const*, char const*)
mglCanvas::Colorbar(mglDataA const*, char const*, double, double, double, double)
mglCanvas::colorbar(mglDataA const*, double const*, int, double, double, double, double, bool)
mglCanvas::colorbar(mglDataA const*, double const*, int, double, double, double, double, bool)::cgid
mglCanvas::Combine(mglCanvas const*)
mglCanvas::combine(unsigned char*, unsigned char const*) const
mglCanvas::DefaultPlotParam()
mglCanvas::DelFrame(long)
mglCanvas::DrawAxis(mglAxis&, bool, char, char const*, double)
mglCanvas::DrawAxis(mglAxis&, bool, char, char const*, double)::cgid
mglCanvas::DrawGrid(mglAxis&, bool)
mglCanvas::DrawLabels(mglAxis&, bool, mglMatrix const*)
mglCanvas::EndFrame()
mglCanvas::EndGroup()
mglCanvas::ExportMGLD(char const*, char const*)
mglCanvas::fast_draw(mglPnt const&, mglPnt const&, mglDrawReg const*)
mglCanvas::FillBackground(mglColor const&) [clone ._omp_fn.18]
mglCanvas::FillBackground(mglColor const&)
mglCanvas::FindOptOrg(char, int) const
mglCanvas::FindOptOrg(char, int) const::bb
mglCanvas::FindOptOrg(char, int) const::px
mglCanvas::FindOptOrg(char, int) const::py
mglCanvas::FindOptOrg(char, int) const::pz
mglCanvas::Finish()
mglCanvas::Finish()::bp
mglCanvas::Fog(double, double)
mglCanvas::GetBackground()
mglCanvas::GetBits()
mglCanvas::GetColor(mglPrim const&) const
mglCanvas::GetDelay() const
mglCanvas::GetFrame(long)
mglCanvas::GetGlyphPhi(mglPnt const&, float)
mglCanvas::GetHeight() const
mglCanvas::GetJSON() [clone ._omp_fn.0]
mglCanvas::GetJSON()
mglCanvas::GetLabelPos(double, long, mglAxis&)
mglCanvas::GetNumFrame() const
mglCanvas::GetObjId(long, long) const
mglCanvas::GetOrgX(char, bool) const
mglCanvas::GetOrgY(char, bool) const
mglCanvas::GetOrgZ(char, bool) const
mglCanvas::GetPlotFactor()
mglCanvas::GetPrmCol(long, bool) const
mglCanvas::GetRatio() const
mglCanvas::GetRGBA()
mglCanvas::GetRGBLines(long&, long&, unsigned char*&, bool)
mglCanvas::GetSplId(long, long) const
mglCanvas::GetWidth() const
mglCanvas::Glyph(double, double, double, int, long, double)
mglCanvas::glyph_draw(mglPrim const&, mglDrawReg*)
mglCanvas::glyph_fill(mglMatrix const*, mglPnt const&, double, mglGlyph const&, mglDrawReg const*)
mglCanvas::glyph_fpix(long, long, mglMatrix const*, mglPnt const&, double, mglGlyph const&, mglDrawReg const*)
mglCanvas::glyph_line(mglMatrix const*, mglPnt const&, double, bool, mglDrawReg const*)
mglCanvas::glyph_lpix(long, long, mglMatrix const*, mglPnt const&, double, bool, mglDrawReg const*)
mglCanvas::glyph_pix(long, long, mglPrim const&, mglDrawReg*)
mglCanvas::glyph_wire(mglMatrix const*, mglPnt const&, double, mglGlyph const&, mglDrawReg const*)
mglCanvas::glyph_wpix(long, long, mglMatrix const*, mglPnt const&, double, mglGlyph const&, mglDrawReg const*)
mglCanvas::Grid(char const*, char const*, char const*)
mglCanvas::Grid(char const*, char const*, char const*)::cgid
mglCanvas::Identity(bool)
mglCanvas::ImportMGLD(char const*, bool)
mglCanvas::InPlot(double, double, double, double, bool)
mglCanvas::InPlot(double, double, double, double, char const*)
mglCanvas::InPlot(mglMatrix&, double, double, double, double, bool)
mglCanvas::IsActive(int, int, int&)
mglCanvas::Label(char, char const*, double, char const*)
mglCanvas::LabelTicks(mglAxis&)
mglCanvas::Labelw(char, wchar_t const*, double, char const*)
mglCanvas::Legend(double, double, char const*, char const*)
mglCanvas::Legend(int, char const*, char const*)
mglCanvas::Legend(std::vector<mglText, std::allocator<mglText> > const&, double, double, char const*, char const*)
mglCanvas::Legend(std::vector<mglText, std::allocator<mglText> > const&, double, double, char const*, char const*)::cgid
mglCanvas::Light(int, bool)
mglCanvas::LightScale(mglMatrix const*)
mglCanvas::LightScale(mglMatrix const*, mglLight&)
mglCanvas::line_draw(mglPnt const&, mglPnt const&, mglDrawReg const*)
mglCanvas::line_pix(long, long, mglPnt const&, mglPnt const&, mglDrawReg const*)
mglCanvas::line_plot(long, long)
mglCanvas::LoadBackground(char const*, double) [clone ._omp_fn.17]
mglCanvas::LoadBackground(char const*, double)
mglCanvas::mark_draw(mglPnt const&, char, double, mglDrawReg*)
mglCanvas::mark_pix(long, long, mglPnt const&, char, double, mglDrawReg*)
mglCanvas::mark_plot(long, char, double)
mglCanvas::mglCanvas(int, int)
mglCanvas::mglCanvas(int, int)
mglCanvas::NewFrame()
mglCanvas::Perspective(double, bool)
mglCanvas::pnt_draw(mglPnt const&, mglDrawReg const*)
mglCanvas::pnt_fast(long, long, double, unsigned char const*, int)
mglCanvas::pnt_pix(long, long, mglPnt const&, mglDrawReg const*)
mglCanvas::pnt_plot(long, long, double, unsigned char const*, int) [clone .part.23]
mglCanvas::pnt_plot(long, long, double, unsigned char const*, int)
mglCanvas::Pop()
mglCanvas::PostScale(mglMatrix const*, mglPoint&) const
mglCanvas::PreparePrim(int)
mglCanvas::ProjScale(int, long, bool)
mglCanvas::Push()
mglCanvas::PushDrwDat()
mglCanvas::PutDrawReg(mglDrawReg*, mglCanvas const*)
mglCanvas::pxl_backgr(long, long, void const*) [clone ._omp_fn.6]
mglCanvas::pxl_backgr(long, long, void const*)
mglCanvas::pxl_combine(long, long, void const*) [clone ._omp_fn.4]
mglCanvas::pxl_combine(long, long, void const*)
mglCanvas::pxl_dotsdr(long, long, void const*) [clone ._omp_fn.15]
mglCanvas::pxl_dotsdr(long, long, void const*)
mglCanvas::pxl_memcpy(long, long, void const*) [clone ._omp_fn.5]
mglCanvas::pxl_memcpy(long, long, void const*)
mglCanvas::pxl_other(long, long, void const*) [clone ._omp_fn.19]
mglCanvas::pxl_other(long, long, void const*) [clone ._omp_fn.20]
mglCanvas::pxl_other(long, long, void const*)
mglCanvas::pxl_pntcol(long, long, void const*) [clone ._omp_fn.9]
mglCanvas::pxl_pntcol(long, long, void const*)
mglCanvas::pxl_primdr(long, long, void const*) [clone ._omp_fn.11]
mglCanvas::pxl_primdr(long, long, void const*) [clone ._omp_fn.12]
mglCanvas::pxl_primdr(long, long, void const*) [clone ._omp_fn.13]
mglCanvas::pxl_primdr(long, long, void const*)
mglCanvas::pxl_primpx(long, long, void const*) [clone ._omp_fn.14]
mglCanvas::pxl_primpx(long, long, void const*)
mglCanvas::pxl_setz(long, long, void const*) [clone ._omp_fn.10]
mglCanvas::pxl_setz(long, long, void const*)
mglCanvas::pxl_setz_adv(long, long, void const*) [clone ._omp_fn.8]
mglCanvas::pxl_setz_adv(long, long, void const*)
mglCanvas::pxl_transform(long, long, void const*) [clone ._omp_fn.7]
mglCanvas::pxl_transform(long, long, void const*)
mglCanvas::quad_draw(mglPnt const&, mglPnt const&, mglPnt const&, mglPnt const&, mglDrawReg const*)
mglCanvas::quad_pix(long, long, mglPnt const&, mglPnt const&, mglPnt const&, mglPnt const&, mglDrawReg const*)
mglCanvas::quad_plot(long, long, long, long)
mglCanvas::Rasterize()
mglCanvas::ResetFrames()
mglCanvas::Restore()
mglCanvas::RestorePnt(mglPoint, bool) const
mglCanvas::Rotate(double, double, double)
mglCanvas::RotateN(double, double, double, double)
mglCanvas::ScalePoint(mglMatrix const*, mglPoint&, mglPoint&, bool) const
mglCanvas::SetAxisStl(char const*, char const*, char const*)
mglCanvas::SetDelay(double)
mglCanvas::SetFrame(long)
mglCanvas::SetLegendMarks(int)
mglCanvas::SetObjId(long)
mglCanvas::SetPenDelta(float)
mglCanvas::SetPlotFactor(double)
mglCanvas::setPp(mglPnt&, mglPoint const&)
mglCanvas::SetSize(int, int, bool) [clone ._omp_fn.0]
mglCanvas::SetSize(int, int, bool) [clone ._omp_fn.1]
mglCanvas::SetSize(int, int, bool) [clone ._omp_fn.2]
mglCanvas::SetSize(int, int, bool) [clone ._omp_fn.3]
mglCanvas::SetSize(int, int, bool)
mglCanvas::SetTickLen(double, double)
mglCanvas::SetTicks(char, double, int, double, wchar_t const*)
mglCanvas::SetTickShift(mglPoint)
mglCanvas::SetTicksVal(char, char const*, bool)
mglCanvas::SetTicksVal(char, mglDataA const*, char const**, bool)
mglCanvas::SetTicksVal(char, mglDataA const*, char const*, bool)
mglCanvas::SetTicksVal(char, mglDataA const*, wchar_t const**, bool)
mglCanvas::SetTicksVal(char, mglDataA const*, wchar_t const*, bool)
mglCanvas::SetTicksVal(char, wchar_t const*, bool)
mglCanvas::SetTickTempl(char, char const*)
mglCanvas::SetTickTempl(char, wchar_t const*)
mglCanvas::SetTickTime(char, double, char const*)
mglCanvas::SetTranspType(int)
mglCanvas::SetTuneTicks(int, double)
mglCanvas::Shear(double, double)
mglCanvas::ShearPlot(int, int, double, double, double, double)
mglCanvas::ShowFrame(long)
mglCanvas::StartAutoGroup(char const*)
mglCanvas::StartAutoGroup(char const*)::id
mglCanvas::StartGIF(char const*, int)
mglCanvas::StickPlot(int, int, double, double)
mglCanvas::Table(double, double, mglDataA const*, wchar_t const*, char const*, char const*)
mglCanvas::Table(double, double, mglDataA const*, wchar_t const*, char const*, char const*)::cgid
mglCanvas::text_plot(long, wchar_t const*, char const*, double, double, double, bool)
mglCanvas::tick_draw(mglPoint, mglPoint, mglPoint, int)
mglCanvas::Title(char const*, char const*, double)
mglCanvas::Title(wchar_t const*, char const*, double)
mglCanvas::Title(wchar_t const*, char const*, double)::cgid
mglCanvas::trig_draw(mglPnt const&, mglPnt const&, mglPnt const&, bool, mglDrawReg const*)
mglCanvas::trig_pix(long, long, mglPnt const&, mglPnt const&, mglPnt const&, bool, mglDrawReg const*)
mglCanvas::trig_plot(long, long, long)
mglCanvas::UpdateAxis()
mglCanvas::View(double, double, double)
mglCanvas::WriteJSON(char const*, bool)
mglCanvas::Zoom(double, double, double, double)
mglCanvasFL::~mglCanvasFL()
mglCanvasFL::~mglCanvasFL()
mglCanvasFL::~mglCanvasFL()
mglCanvasFL::Adjust()
mglCanvasFL::Animation()
mglCanvasFL::GotoFrame(int)
mglCanvasFL::mglCanvasFL()
mglCanvasFL::mglCanvasFL()
mglCanvasFL::ToggleAlpha()
mglCanvasFL::ToggleLight()
mglCanvasFL::ToggleNo()
mglCanvasFL::ToggleRotate()
mglCanvasFL::ToggleZoom()
mglCanvasFL::Update()
mglCanvasFL::Window(int, char**, int (*)(mglBase*, void*), char const*, void*, void (*)(void*), bool)
mglCanvasFL::Window(int, char**, int (*)(mglBase*, void*), char const*, void*, void (*)(void*), bool)::ctmp
mglCanvasFL::Window(int, char**, int (*)(mglBase*, void*), char const*, void*, void (*)(void*), bool)::first
mglCanvasFL::Window(int, char**, int (*)(mglBase*, void*), char const*, void*, void (*)(void*), bool)::tmp
mglCanvasGL::~mglCanvasGL()
mglCanvasGL::~mglCanvasGL()
mglCanvasGL::~mglCanvasGL()
mglCanvasGL::AddLight(int, mglPoint, mglPoint, char, double, double)
mglCanvasGL::Alpha(bool)
mglCanvasGL::Clf(char const*)
mglCanvasGL::Clf(mglColor)
mglCanvasGL::Finish()
mglCanvasGL::Fog(double, double)
mglCanvasGL::GetRGBLines(long&, long&, unsigned char*&, bool)
mglCanvasGL::gl_clf(mglColor)
mglCanvasGL::Light(bool)
mglCanvasGL::Light(int, bool)
mglCanvasGL::LightScale(mglMatrix const*)
mglCanvasGL::line_draw(long, long)
mglCanvasGL::line_draw(mglPnt const&, mglPnt const&, mglDrawReg const*)
mglCanvasGL::mark_draw(mglPnt const&, char, double, mglDrawReg*)
mglCanvasGL::mglCanvasGL()
mglCanvasGL::mglCanvasGL()
mglCanvasGL::pnt_draw(mglPnt const&, mglDrawReg const*)
mglCanvasGL::quad_draw(long, long, long, long)
mglCanvasGL::quad_draw(mglPnt const&, mglPnt const&, mglPnt const&, mglPnt const&, mglDrawReg const*)
mglCanvasGL::SetQuality(int)
mglCanvasGL::SetSize(int, int, bool)
mglCanvasGL::trig_draw(long, long, long)
mglCanvasGL::trig_draw(mglPnt const&, mglPnt const&, mglPnt const&, bool, mglDrawReg const*)
mglCanvasGL::View(double, double, double)
mglCanvasGL::Zoom(double, double, double, double)
mglCanvasQT::~mglCanvasQT()
mglCanvasQT::~mglCanvasQT()
mglCanvasQT::~mglCanvasQT()
mglCanvasQT::Adjust()
mglCanvasQT::Animation()
mglCanvasQT::Animation()::start
mglCanvasQT::GotoFrame(int)
mglCanvasQT::mglCanvasQT()
mglCanvasQT::mglCanvasQT()
mglCanvasQT::ToggleAlpha()
mglCanvasQT::ToggleLight()
mglCanvasQT::ToggleNo()
mglCanvasQT::ToggleRotate()
mglCanvasQT::ToggleZoom()
mglCanvasQT::Update()
mglCanvasQT::Window(int, char**, int (*)(mglBase*, void*), char const*, void*, void (*)(void*), bool)
mglCanvasQT::Window(int, char**, int (*)(mglBase*, void*), char const*, void*, void (*)(void*), bool)::arg
mglCanvasQT::Window(int, char**, int (*)(mglBase*, void*), char const*, void*, void (*)(void*), bool)::argc_
mglCanvasQT::Window(int, char**, int (*)(mglBase*, void*), char const*, void*, void (*)(void*), bool)::argv_
mglCanvasQT::Window(int, char**, int (*)(mglBase*, void*), char const*, void*, void (*)(void*), bool)::parg
mglCanvasWnd::~mglCanvasWnd()
mglCanvasWnd::~mglCanvasWnd()
mglCanvasWnd::~mglCanvasWnd()
mglCanvasWnd::DelFrame(long)
mglCanvasWnd::EndFrame()
mglCanvasWnd::GetBits()
mglCanvasWnd::GetCurFig() const
mglCanvasWnd::GetMousePos() const
mglCanvasWnd::GetNumFig() const
mglCanvasWnd::mglCanvasWnd()
mglCanvasWnd::mglCanvasWnd()
mglCanvasWnd::NextFrame()
mglCanvasWnd::PrevFrame()
mglCanvasWnd::ReLoad()
mglCanvasWnd::ResetFrames()
mglCanvasWnd::SetCurFig(int)
mglCanvasWnd::SetDrawFunc(int (*)(mglBase*, void*), void*, void (*)(void*))
mglCanvasWnd::SetFrame(long)
mglCanvasWnd::SetSize(int, int, bool)
mglCanvasWnd::Setup(bool, bool)
mglCheck(char*, int)
mglCheck(std::basic_string<wchar_t, std::char_traits<wchar_t>, std::allocator<wchar_t> >)
mglColor::mglColor()
mglColor::mglColor(char, float)
mglColor::mglColor(float, float, float, float)
mglColor::mglColor(mglColor const&)
mglColor::operator!=(mglColor const&) const
mglColor::operator=(mglColor const&)
mglColor::operator==(mglColor const&) const
mglColor::Set(char, float)
mglColor::Set(float, float, float, float)
mglColor::Set(mglColor, float)
mglColor::Valid()
mglConvertFromGraph(QPixmap&, mglCanvas*, unsigned char**, QImage*)
mglData::~mglData()
mglData::~mglData()
mglData::Clean(long)
mglData::CosFFT(char const*)
mglData::Create(long, long, long)
mglData::Crop(long, long, char)
mglData::CumSum(char const*)
mglData::Delete(char, long, long)
mglData::Diff(char const*)
mglData::Diff(mglDataA const&, mglDataA const&)
mglData::Diff(mglDataA const&, mglDataA const&, mglDataA const&)
mglData::Diff2(char const*)
mglData::dvx(long, long, long) const
mglData::dvy(long, long, long) const
mglData::dvz(long, long, long) const
mglData::Envelop(char)
mglData::Extend(long, long)
mglData::Fill(double, double, char)
mglData::Fill(mglBase*, char const*, char const*)
mglData::FillSample(char const*)
mglData::GetNx() const
mglData::GetNy() const
mglData::GetNz() const
mglData::Hankel(char const*)
mglData::Import(char const*, char const*, double, double)
mglData::Insert(char, long, long)
mglData::Integral(char const*)
mglData::Join(mglDataA const&)
mglData::Limit(double)
mglData::mglData(bool, mglData*)
mglData::mglData(char const*)
mglData::mglData(double const*, int)
mglData::mglData(int, double const*)
mglData::mglData(long, long, long)
mglData::mglData(mglData const&)
mglData::mglData(mglDataA const*)
mglData::Mirror(char const*)
mglData::Modify(char const*, long)
mglData::Modify(char const*, mglDataA const&)
mglData::Modify(char const*, mglDataA const&, mglDataA const&)
mglData::Move(mglData*)
mglData::NewId()
mglData::Norm(double, double, bool, long)
mglData::NormSl(double, double, char, bool, bool)
mglData::operator*=(double)
mglData::operator*=(mglDataA const&)
mglData::operator/=(double)
mglData::operator/=(mglDataA const&)
mglData::operator+=(double)
mglData::operator+=(mglDataA const&)
mglData::operator=(double)
mglData::operator-=(double)
mglData::operator=(mglData const&)
mglData::operator=(mglDataA const&)
mglData::operator-=(mglDataA const&)
mglData::Put(double, long, long, long)
mglData::Put(mglDataA const&, long, long, long)
mglData::Read(char const*)
mglData::Read(char const*, long, long, long)
mglData::ReadAll(char const*, bool)
mglData::ReadHDF(char const*, char const*)
mglData::ReadMat(char const*, long)
mglData::ReadRange(char const*, double, double, double, bool)
mglData::Rearrange(long, long, long)
mglData::RefillGS(mglDataA const&, mglDataA const&, double, double, long)
mglData::Roll(char, long)
mglData::ScanFile(char const*, char const*)
mglData::Set(double const*, long, long, long)
mglData::Set(gsl_matrix*)
mglData::Set(mglDataA const&)
mglData::Set(mglDataA const*)
mglData::set_v(double, long, long, long)
mglData::SetColumnId(char const*)
mglData::Sew(char const*, double)
mglData::SinFFT(char const*)
mglData::Smooth(char const*, double)
mglData::Sort(long, long)
mglData::Squeeze(long, long, long, bool)
mglData::SubData(long, long, long) const
mglData::Swap(char const*)
mglData::Transpose(char const*)
mglData::v(long, long, long) const
mglData::value(double, double, double) const
mglData::valueD(double, double, double, double*, double*, double*) const
mglData::vthr(long) const
mglData::Wavelet(char const*, int)
mglDataA::~mglDataA()
mglDataA::~mglDataA()
mglDataA::~mglDataA()
mglDataA::Export(char const*, char const*, double, double, long) const
mglDataA::Find(char const*, long&, long&, long&) const
mglDataA::FindAny(char const*) const
mglDataA::Get(long) const
mglDataA::GetNN() const
mglDataA::Last(char const*, long&, long&, long&) const
mglDataA::linear(double, double, double) const
mglDataA::Maximal() const
mglDataA::Maximal(double&, double&, double&) const
mglDataA::MaximalNeg() const
mglDataA::mglDataA()
mglDataA::Minimal() const
mglDataA::MinimalPos() const
mglDataA::Momentum(char, double&, double&) const
mglDataA::Momentum(char, double&, double&, double&, double&) const
mglDataA::PrintInfo() const
mglDataA::Save(char const*, long) const
mglDataA::SaveHDF(char const*, char const*, bool) const
mglDataA::set_v(double, long, long, long)
mglDataA::Spline1(double, double, double) const
mglDataA::Spline1(mglPoint&, double, double, double) const
mglDataA::vc(long, long, long) const
mglDataA::vcthr(long) const
mglDataA::vthr(long) const
mglDataC::~mglDataC()
mglDataC::~mglDataC()
mglDataC::Abs() const
mglDataC::Arg() const
mglDataC::Create(long, long, long)
mglDataC::Crop(long, long, char)
mglDataC::CumSum(char const*)
mglDataC::Delete(char, long, long)
mglDataC::Diff(char const*)
mglDataC::Diff2(char const*)
mglDataC::Diffraction(char const*, double)
mglDataC::dvx(long, long, long) const
mglDataC::dvy(long, long, long) const
mglDataC::dvz(long, long, long) const
mglDataC::Extend(long, long)
mglDataC::FFT(char const*)
mglDataC::Fill(mglBase*, char const*, char const*)
mglDataC::Fill(std::complex<double>, std::complex<double>, char)
mglDataC::Get(long) const
mglDataC::GetNx() const
mglDataC::GetNy() const
mglDataC::GetNz() const
mglDataC::Hankel(char const*)
mglDataC::Imag() const
mglDataC::Insert(char, long, long)
mglDataC::Integral(char const*)
mglDataC::Join(mglDataA const&)
mglDataC::Limit(double)
mglDataC::mglDataC(bool, mglDataC*)
mglDataC::mglDataC(char const*)
mglDataC::mglDataC(long, long, long)
mglDataC::mglDataC(mglDataA const&)
mglDataC::mglDataC(mglDataA const*)
mglDataC::mglDataC(mglDataC const&)
mglDataC::Mirror(char const*)
mglDataC::Modify(char const*, long)
mglDataC::Modify(char const*, mglDataA const&)
mglDataC::Modify(char const*, mglDataA const&, mglDataA const&)
mglDataC::Move(mglDataC*)
mglDataC::NewId()
mglDataC::operator*=(mglDataA const&)
mglDataC::operator*=(std::complex<double>)
mglDataC::operator/=(mglDataA const&)
mglDataC::operator/=(std::complex<double>)
mglDataC::operator+=(mglDataA const&)
mglDataC::operator+=(std::complex<double>)
mglDataC::operator-=(mglDataA const&)
mglDataC::operator=(mglDataC const&)
mglDataC::operator=(std::complex<double>) [clone ._omp_fn.0]
mglDataC::operator=(std::complex<double>) [clone ._omp_fn.16]
mglDataC::operator=(std::complex<double>)
mglDataC::operator-=(std::complex<double>)
mglDataC::Put(mglDataA const&, long, long, long)
mglDataC::Put(std::complex<double>, long, long, long)
mglDataC::Read(char const*)
mglDataC::Read(char const*, long, long, long)
mglDataC::ReadAll(char const*, bool)
mglDataC::ReadHDF(char const*, char const*)
mglDataC::ReadMat(char const*, long)
mglDataC::ReadRange(char const*, double, double, double, bool)
mglDataC::Real() const
mglDataC::Rearrange(long, long, long)
mglDataC::RefillGS(mglDataA const&, mglDataA const&, double, double, long)
mglDataC::Roll(char, long)
mglDataC::Save(char const*, long) const
mglDataC::SaveHDF(char const*, char const*, bool) const
mglDataC::Set(mglDataA const&)
mglDataC::Set(mglDataA const*)
mglDataC::Set(std::complex<double> const*, long, long, long)
mglDataC::set_v(double, long, long, long)
mglDataC::SetColumnId(char const*)
mglDataC::Smooth(char const*, double)
mglDataC::Squeeze(long, long, long, bool)
mglDataC::Swap(char const*)
mglDataC::Transpose(char const*)
mglDataC::v(long, long, long) const
mglDataC::value(double, double, double) const
mglDataC::valueD(double, double, double, double*, double*, double*) const
mglDataC::vc(long, long, long) const
mglDataC::vcthr(long) const
mglDataC::vthr(long) const
mglDataF::~mglDataF()
mglDataF::~mglDataF()
mglDataF::dvx(long, long, long) const
mglDataF::dvy(long, long, long) const
mglDataF::dvz(long, long, long) const
mglDataF::GetNx() const
mglDataF::GetNy() const
mglDataF::GetNz() const
mglDataF::v(long, long, long) const
mglDataF::value(double, double, double) const
mglDataF::valueD(double, double, double, double*, double*, double*) const
mglDataF::vthr(long) const
mglDataR::~mglDataR()
mglDataR::~mglDataR()
mglDataR::dvx(long, long, long) const
mglDataR::dvy(long, long, long) const
mglDataR::dvz(long, long, long) const
mglDataR::GetNx() const
mglDataR::GetNy() const
mglDataR::GetNz() const
mglDataR::Maximal() const
mglDataR::mglDataR(mglDataA const&, long)
mglDataR::Minimal() const
mglDataR::SetInd(long, wchar_t const*)
mglDataR::v(long, long, long) const
mglDataR::value(double, double, double) const
mglDataR::valueD(double, double, double, double*, double*, double*) const
mglDataR::vthr(long) const
mglDataS::~mglDataS()
mglDataS::~mglDataS()
mglDataS::dvx(long, long, long) const
mglDataS::dvy(long, long, long) const
mglDataS::dvz(long, long, long) const
mglDataS::GetNx() const
mglDataS::GetNy() const
mglDataS::GetNz() const
mglDataS::v(long, long, long) const
mglDataS::value(double, double, double) const
mglDataS::valueD(double, double, double, double*, double*, double*) const
mglDataS::vthr(long) const
mglDataT::~mglDataT()
mglDataT::~mglDataT()
mglDataT::dvx(long, long, long) const
mglDataT::dvy(long, long, long) const
mglDataT::dvz(long, long, long) const
mglDataT::GetNx() const
mglDataT::GetNy() const
mglDataT::GetNz() const
mglDataT::Maximal() const
mglDataT::mglDataT(mglDataA const&, long)
mglDataT::Minimal() const
mglDataT::SetInd(long, wchar_t)
mglDataT::v(long, long, long) const
mglDataT::value(double, double, double) const
mglDataT::valueD(double, double, double, double*, double*, double*) const
mglDataT::vthr(long) const
mglDataV::~mglDataV()
mglDataV::~mglDataV()
mglDataV::All()
mglDataV::Create(long, long, long)
mglDataV::dvx(long, long, long) const
mglDataV::dvy(long, long, long) const
mglDataV::dvz(long, long, long) const
mglDataV::Fill(double, double, char) [clone .part.10]
mglDataV::Fill(double, double, char)
mglDataV::GetNx() const
mglDataV::GetNy() const
mglDataV::GetNz() const
mglDataV::Maximal() const
mglDataV::mglDataV(long, long, long, double, double, char)
mglDataV::Minimal() const
mglDataV::v(long, long, long) const
mglDataV::value(double, double, double) const
mglDataV::valueD(double, double, double, double*, double*, double*) const
mglDataV::vthr(long) const
mglDataW::~mglDataW()
mglDataW::~mglDataW()
mglDataW::dvx(long, long, long) const
mglDataW::dvy(long, long, long) const
mglDataW::dvz(long, long, long) const
mglDataW::Freq(double, char)
mglDataW::GetNx() const
mglDataW::GetNy() const
mglDataW::GetNz() const
mglDataW::Maximal() const
mglDataW::mglDataW(long, long, long, double, char)
mglDataW::Minimal() const
mglDataW::v(long, long, long) const
mglDataW::value(double, double, double) const
mglDataW::valueD(double, double, double, double*, double*, double*) const
mglDataW::vthr(long) const
mglDraw::~mglDraw()
mglDraw::~mglDraw()
mglDraw::~mglDraw()
mglDraw::Calc()
mglDraw::Click()
mglDraw::Reload()
mglDrawDat* std::__uninitialized_copy<false>::__uninit_copy<mglDrawDat*, mglDrawDat*>(mglDrawDat*, mglDrawDat*, mglDrawDat*)
mglDrawDat::~mglDrawDat()
mglDrawDat::mglDrawDat()
mglDrawDat::mglDrawDat(mglDrawDat const&)
mglDrawDat::operator=(mglDrawDat const&)
mglDrawReg::mglDrawReg(mglDrawReg const&)
mglDrawReg::set(mglCanvas*, int, int, int)
mglDrawScript::~mglDrawScript()
mglDrawScript::~mglDrawScript()
mglDrawScript::Draw(mglGraph*)
mglFindArg(char const*)
mglFindArg(std::basic_string<wchar_t, std::char_traits<wchar_t>, std::allocator<wchar_t> > const&)
mglFindInText(char*, char const*)
mglFindInText(std::basic_string<wchar_t, std::char_traits<wchar_t>, std::allocator<wchar_t> >, char const*)
mglFLTK::~mglFLTK()
mglFLTK::~mglFLTK()
mglFLTK::Run()
mglFLTK::Widget()
mglFnStack* std::__uninitialized_copy<false>::__uninit_copy<mglFnStack*, mglFnStack*>(mglFnStack*, mglFnStack*, mglFnStack*)
mglFnStack::~mglFnStack()
mglFont::~mglFont()
mglFont::~mglFont()
mglFont::~mglFont()
mglFont::Clear()
mglFont::Convert(wchar_t const*, unsigned int*) const
mglFont::Copy(mglFont*) [clone .part.91]
mglFont::Copy(mglFont*)
mglFont::draw_ouline(int, float, float, float, float, float, float) const
mglFont::get_ptr(long&, unsigned int*, unsigned int**, unsigned int**, float&, float&, float, float, int) const
mglFont::get_ptr(long&, unsigned int*, unsigned int**, unsigned int**, float&, float&, float, float, int) const::s1
mglFont::get_ptr(long&, unsigned int*, unsigned int**, unsigned int**, float&, float&, float, float, int) const::s2
mglFont::GetFact(int) const
mglFont::GetLn(int, long) const
mglFont::GetNl(int, long) const
mglFont::GetNt(int, long) const
mglFont::GetNumGlyph() const
mglFont::GetTr(int, long) const
mglFont::GetWidth(int, long) const
mglFont::Height(char const*) const
mglFont::Height(int) const
mglFont::Internal(unsigned int) const
mglFont::Load(char const*, char const*) [clone ._omp_fn.1]
mglFont::Load(char const*, char const*) [clone ._omp_fn.2]
mglFont::Load(char const*, char const*) [clone ._omp_fn.3]
mglFont::Load(char const*, char const*) [clone ._omp_fn.4]
mglFont::Load(char const*, char const*) [clone ._omp_fn.5]
mglFont::Load(char const*, char const*) [clone ._omp_fn.6]
mglFont::Load(char const*, char const*) [clone ._omp_fn.7]
mglFont::Load(char const*, char const*)
mglFont::LoadBin(char const*, char const*)
mglFont::main_copy() [clone ._omp_fn.0]
mglFont::main_copy()
mglFont::mem_alloc(long)
mglFont::mglFont(char const*, char const*)
mglFont::mglFont(char const*, char const*)
mglFont::Parse(wchar_t const*) const
mglFont::Puts(char const*, char const*, float, float) const
mglFont::Puts(unsigned int const*, float, float, float, int, float, float) const [clone .part.14]
mglFont::Puts(unsigned int const*, float, float, float, int, float, float) const
mglFont::Puts(wchar_t const*, char const*, float, float) const
mglFont::Puts(wchar_t const*, int, int, float, float) const
mglFont::read_data(char const*, int, std::vector<short, std::allocator<short> >&, std::vector<mglGlyphDescr, std::allocator<mglGlyphDescr> >&)
mglFont::read_def()
mglFont::read_main(char const*, std::vector<short, std::allocator<short> >&)
mglFont::Restore()
mglFont::SaveBin(char const*)
mglFont::Width(char const*, char const*) const
mglFont::Width(wchar_t const*, char const*) const
mglFont::Width(wchar_t const*, int) const
mglFormula::~mglFormula()
mglFormula::~mglFormula()
mglFormula::Calc(double const*) const
mglFormula::Calc(double, double, double, double) const
mglFormula::Calc(double, double, double, double, double, double) const
mglFormula::CalcD(char, double, double, double, double) const
mglFormula::CalcD(char, double, double, double, double, double, double) const
mglFormula::CalcD(double const*, char) const
mglFormula::CalcDIn(int, double const*) const
mglFormula::CalcIn(double const*) const
mglFormula::Error
mglFormula::mglFormula(char const*)
mglFormula::mglFormula(char const*)
mglFormulaC::~mglFormulaC()
mglFormulaC::~mglFormulaC()
mglFormulaC::~mglFormulaC()
mglFormulaC::Calc(std::complex<double> const*) const
mglFormulaC::Calc(std::complex<double>, std::complex<double>, std::complex<double>, std::complex<double>) const
mglFormulaC::Calc(std::complex<double>, std::complex<double>, std::complex<double>, std::complex<double>, std::complex<double>, std::complex<double>) const
mglFormulaC::CalcIn(std::complex<double> const*) const
mglFormulaC::Error
mglFormulaC::mglFormulaC(char const*)
mglFormulaC::mglFormulaC(char const*)
mglFormulaCalc(char const*, std::vector<mglDataA*, std::allocator<mglDataA*> > const&)
mglFormulaCalc(std::basic_string<wchar_t, std::char_traits<wchar_t>, std::allocator<wchar_t> >, mglParser*, std::vector<mglDataA*, std::allocator<mglDataA*> > const&)
mglFormulaCalcC(char const*, std::vector<mglDataA*, std::allocator<mglDataA*> > const&)
mglFormulaCalcC(std::basic_string<wchar_t, std::char_traits<wchar_t>, std::allocator<wchar_t> >, mglParser*, std::vector<mglDataA*, std::allocator<mglDataA*> > const&)
mglFromStr(mglData*, char*, long, long, long) [clone ._omp_fn.0]
mglFromStr(mglData*, char*, long, long, long)
mglFromStr(mglDataC*, char*, long, long, long)
mglFunc::mglFunc(long, wchar_t const*)
mglFunc::mglFunc(long, wchar_t const*)
mglGetStyle(char const*, int*, int*)
mglGlyph* std::__uninitialized_copy<false>::__uninit_copy<__gnu_cxx::__normal_iterator<mglGlyph const*, std::vector<mglGlyph, std::allocator<mglGlyph> > >, mglGlyph*>(__gnu_cxx::__normal_iterator<mglGlyph const*, std::vector<mglGlyph, std::allocator<mglGlyph> > >, __gnu_cxx::__normal_iterator<mglGlyph const*, std::vector<mglGlyph, std::allocator<mglGlyph> > >, mglGlyph*)
mglGlyph* std::__uninitialized_copy<false>::__uninit_copy<mglGlyph*, mglGlyph*>(mglGlyph*, mglGlyph*, mglGlyph*)
mglGlyph::~mglGlyph() [clone .isra.3]
mglGlyph::~mglGlyph() [clone .isra.4]
mglGlyph::~mglGlyph() [clone .isra.8]
mglGlyph::Create(long, long) [clone .part.7]
mglGlyph::Create(long, long)
mglGlyph::mglGlyph()
mglGlyph::mglGlyph(long, long)
mglGlyph::mglGlyph(mglGlyph const&)
mglGlyph::operator!=(mglGlyph const&)
mglGlyph::operator=(mglGlyph const&)
mglGlyph::operator==(mglGlyph const&)
mglGraph::~mglGraph()
mglGraph::~mglGraph()
mglGraph::~mglGraph()
mglGraph::AddLight(int, mglPoint, mglPoint, char, double, double) [clone .isra.23]
mglGraph::Arc(mglPoint, mglPoint, mglPoint, double, char const*)
mglGraph::Curve(mglPoint, mglPoint, mglPoint, mglPoint, char const*, int)
mglGraph::Face(mglPoint, mglPoint, mglPoint, mglPoint, char const*)
mglGraph::mglGraph(mglBase*)
mglGraph::Putsw(mglPoint, mglPoint, wchar_t const*, char const*, double) [clone .isra.160] [clone .constprop.520]
mglGraph::Putsw(mglPoint, wchar_t const*, char const*, double) [clone .isra.158] [clone .constprop.521]
mglGraph::SetFontSizePT(double, int)
mglGraph::SetMask(char, char const*)
mglGraph::SetMask(char, unsigned long long)
mglGraph::SetSizeScl(double)
mglGroup* std::__uninitialized_copy<false>::__uninit_copy<mglGroup*, mglGroup*>(mglGroup*, mglGroup*, mglGroup*)
mglGroup::~mglGroup()
mglGroup::mglGroup(char const*, int)
mglGroup::mglGroup(mglGroup const&)
mglGroup::operator=(mglGroup const&)
mglLight::mglLight()
mglLinear(double const*, long, long, long, double, double, double)
mglLinearC(std::complex<double> const*, long, long, long, double, double, double)
mglMakeMenu(QMainWindow*, QMathGL*, QSpinBox*&, QSpinBox*&)
mglMatrix::clear()
mglMatrix::mglMatrix()
mglMatrix::mglMatrix(mglMatrix const&)
mglMatrix::operator=(mglMatrix const&)
mglMatrix::Rotate(double, double, double)
mglMatrix::RotateN(double, double, double, double)
mglParse::~mglParse()
mglParse::~mglParse()
mglParse::mglParse(bool)
mglParser::~mglParser()
mglParser::~mglParser()
mglParser::~mglParser()
mglParser::AddCommand(mglCommand*, int)
mglParser::AddNum(char const*)
mglParser::AddNum(wchar_t const*)
mglParser::AddParam(int, char const*)
mglParser::AddParam(int, wchar_t const*)
mglParser::AddVar(char const*)
mglParser::AddVar(wchar_t const*)
mglParser::CheckForName(std::basic_string<wchar_t, std::char_traits<wchar_t>, std::allocator<wchar_t> > const&)
mglParser::DeleteAll()
mglParser::DeleteVar(char const*)
mglParser::DeleteVar(wchar_t const*)
mglParser::Exec(mglGraph*, wchar_t const*, long, mglArg*, std::basic_string<wchar_t, std::char_traits<wchar_t>, std::allocator<wchar_t> > const&, wchar_t const*)
mglParser::Execute(mglGraph*, _iobuf*, bool)
mglParser::Execute(mglGraph*, char const*)
mglParser::Execute(mglGraph*, int, wchar_t const**)
mglParser::Execute(mglGraph*, wchar_t const*)
mglParser::FillArg(mglGraph*, int, std::basic_string<wchar_t, std::char_traits<wchar_t>, std::allocator<wchar_t> >*, mglArg*)
mglParser::FindCommand(char const*) const
mglParser::FindCommand(wchar_t const*) const
mglParser::FindNum(char const*)
mglParser::FindNum(wchar_t const*)
mglParser::FindVar(char const*)
mglParser::FindVar(wchar_t const*)
mglParser::FlowExec(mglGraph*, std::basic_string<wchar_t, std::char_traits<wchar_t>, std::allocator<wchar_t> > const&, long, mglArg*)
mglParser::IsFunc(std::basic_string<wchar_t, std::char_traits<wchar_t>, std::allocator<wchar_t> > const&, int*)
mglParser::mglParser(bool)
mglParser::mglParser(bool)
mglParser::Parse(mglGraph*, char const*, long)
mglParser::Parse(mglGraph*, std::basic_string<wchar_t, std::char_traits<wchar_t>, std::allocator<wchar_t> >, long)
mglParser::ParseDat(mglGraph*, std::basic_string<wchar_t, std::char_traits<wchar_t>, std::allocator<wchar_t> >, mglData&)
mglParser::ParseDef(std::basic_string<wchar_t, std::char_traits<wchar_t>, std::allocator<wchar_t> >&)
mglParser::ParseDef(std::basic_string<wchar_t, std::char_traits<wchar_t>, std::allocator<wchar_t> >&)::res
mglParser::PreExec(mglGraph*, long, std::basic_string<wchar_t, std::char_traits<wchar_t>, std::allocator<wchar_t> >*, mglArg*)
mglParser::PutArg(std::basic_string<wchar_t, std::char_traits<wchar_t>, std::allocator<wchar_t> >&, bool)
mglParser::ScanFunc(wchar_t const*)
mglParser::ScanFunc(wchar_t const*)::num
mglParser::skip() [clone .part.37]
mglPnt::mglPnt()
mglPnt::mglPnt(mglPnt const&)
mglPnt::operator=(mglPnt const&)
mglPoint::mglPoint(double, double, double, double)
mglPoint::mglPoint(mglPoint const&)
mglPoint::norm()
mglPoint::Normalize()
mglPoint::operator*=(double)
mglPoint::operator/=(double)
mglPoint::operator+=(mglPoint const&)
mglPoint::operator=(mglPoint const&)
mglPoint::operator-=(mglPoint const&)
mglPoint::Set(double, double, double, double)
mglPoint::val(int)
mglPrepareFitEq(mglBase*, double, char const*, char const*, double*)
mglPrim::mglPrim(int)
mglPrim::mglPrim(mglPrim const&)
mglPrim::operator=(mglPrim const&)
mglQT::~mglQT()
mglQT::~mglQT()
mglQT::Run()
mglQT::Widget()
mglRKdat* std::__uninitialized_copy<false>::__uninit_copy<mglRKdat*, mglRKdat*>(mglRKdat*, mglRKdat*, mglRKdat*)
mglRKdat::~mglRKdat()
mglRKdat::mglRKdat(mglRKdat const&)
mgls_addlegend(mglGraph*, long, mglArg*, char const*, char const*)
mgls_addto(mglGraph*, long, mglArg*, char const*, char const*)
mgls_adjust(mglGraph*, long, mglArg*, char const*, char const*)
mgls_alpha(mglGraph*, long, mglArg*, char const*, char const*)
mgls_alphadef(mglGraph*, long, mglArg*, char const*, char const*)
mgls_ambient(mglGraph*, long, mglArg*, char const*, char const*)
mgls_arc(mglGraph*, long, mglArg*, char const*, char const*)
mgls_area(mglGraph*, long, mglArg*, char const*, char const*)
mgls_arrowsize(mglGraph*, long, mglArg*, char const*, char const*)
mgls_aspect(mglGraph*, long, mglArg*, char const*, char const*)
mgls_attachlight(mglGraph*, long, mglArg*, char const*, char const*)
mgls_axial(mglGraph*, long, mglArg*, char const*, char const*)
mgls_axis(mglGraph*, long, mglArg*, char const*, char const*)
mgls_axisstl(mglGraph*, long, mglArg*, char const*, char const*)
mgls_background(mglGraph*, long, mglArg*, char const*, char const*)
mgls_ball(mglGraph*, long, mglArg*, char const*, char const*)
mgls_barh(mglGraph*, long, mglArg*, char const*, char const*)
mgls_bars(mglGraph*, long, mglArg*, char const*, char const*)
mgls_barwidth(mglGraph*, long, mglArg*, char const*, char const*)
mgls_beam(mglGraph*, long, mglArg*, char const*, char const*)
mgls_belt(mglGraph*, long, mglArg*, char const*, char const*)
mgls_bifurcation(mglGraph*, long, mglArg*, char const*, char const*)
mgls_box(mglGraph*, long, mglArg*, char const*, char const*)
mgls_boxplot(mglGraph*, long, mglArg*, char const*, char const*)
mgls_boxs(mglGraph*, long, mglArg*, char const*, char const*)
mgls_candle(mglGraph*, long, mglArg*, char const*, char const*)
mgls_chart(mglGraph*, long, mglArg*, char const*, char const*)
mgls_chdir(mglGraph*, long, mglArg*, char const*, char const*)
mgls_circle(mglGraph*, long, mglArg*, char const*, char const*)
mgls_clean(mglGraph*, long, mglArg*, char const*, char const*)
mgls_clearlegend(mglGraph*, long, mglArg*, char const*, char const*)
mgls_clf(mglGraph*, long, mglArg*, char const*, char const*)
mgls_cloud(mglGraph*, long, mglArg*, char const*, char const*)
mgls_colorbar(mglGraph*, long, mglArg*, char const*, char const*)
mgls_column(mglGraph*, long, mglArg*, char const*, char const*)
mgls_columnplot(mglGraph*, long, mglArg*, char const*, char const*)
mgls_combine(mglGraph*, long, mglArg*, char const*, char const*)
mgls_cone(mglGraph*, long, mglArg*, char const*, char const*)
mgls_cones(mglGraph*, long, mglArg*, char const*, char const*)
mgls_cont(mglGraph*, long, mglArg*, char const*, char const*)
mgls_cont3(mglGraph*, long, mglArg*, char const*, char const*)
mgls_contd(mglGraph*, long, mglArg*, char const*, char const*)
mgls_contf(mglGraph*, long, mglArg*, char const*, char const*)
mgls_contf3(mglGraph*, long, mglArg*, char const*, char const*)
mgls_contfx(mglGraph*, long, mglArg*, char const*, char const*)
mgls_contfy(mglGraph*, long, mglArg*, char const*, char const*)
mgls_contfz(mglGraph*, long, mglArg*, char const*, char const*)
mgls_contv(mglGraph*, long, mglArg*, char const*, char const*)
mgls_contx(mglGraph*, long, mglArg*, char const*, char const*)
mgls_conty(mglGraph*, long, mglArg*, char const*, char const*)
mgls_contz(mglGraph*, long, mglArg*, char const*, char const*)
mgls_copy(mglGraph*, long, mglArg*, char const*, char const*)
mgls_correl(mglGraph*, long, mglArg*, char const*, char const*)
mgls_cosfft(mglGraph*, long, mglArg*, char const*, char const*)
mgls_crange(mglGraph*, long, mglArg*, char const*, char const*)
mgls_crop(mglGraph*, long, mglArg*, char const*, char const*)
mgls_crust(mglGraph*, long, mglArg*, char const*, char const*)
mgls_ctick(mglGraph*, long, mglArg*, char const*, char const*)
mgls_cumsum(mglGraph*, long, mglArg*, char const*, char const*)
mgls_curve(mglGraph*, long, mglArg*, char const*, char const*)
mgls_cut(mglGraph*, long, mglArg*, char const*, char const*)
mgls_datagrid(mglGraph*, long, mglArg*, char const*, char const*)
mgls_datas(mglGraph*, long, mglArg*, char const*, char const*)
mgls_delete(mglGraph*, long, mglArg*, char const*, char const*)
mgls_dens(mglGraph*, long, mglArg*, char const*, char const*)
mgls_dens3(mglGraph*, long, mglArg*, char const*, char const*)
mgls_densx(mglGraph*, long, mglArg*, char const*, char const*)
mgls_densy(mglGraph*, long, mglArg*, char const*, char const*)
mgls_densz(mglGraph*, long, mglArg*, char const*, char const*)
mgls_dew(mglGraph*, long, mglArg*, char const*, char const*)
mgls_diff(mglGraph*, long, mglArg*, char const*, char const*)
mgls_diff2(mglGraph*, long, mglArg*, char const*, char const*)
mgls_diffract(mglGraph*, long, mglArg*, char const*, char const*)
mgls_diffuse(mglGraph*, long, mglArg*, char const*, char const*)
mgls_divto(mglGraph*, long, mglArg*, char const*, char const*)
mgls_dots(mglGraph*, long, mglArg*, char const*, char const*)
mgls_drawreg(mglGraph*, long, mglArg*, char const*, char const*)
mgls_drop(mglGraph*, long, mglArg*, char const*, char const*)
mgls_echo(mglGraph*, long, mglArg*, char const*, char const*)
mgls_ellipse(mglGraph*, long, mglArg*, char const*, char const*)
mgls_envelop(mglGraph*, long, mglArg*, char const*, char const*)
mgls_errbox(mglGraph*, long, mglArg*, char const*, char const*)
mgls_error(mglGraph*, long, mglArg*, char const*, char const*)
mgls_evaluate(mglGraph*, long, mglArg*, char const*, char const*)
mgls_export(mglGraph*, long, mglArg*, char const*, char const*)
mgls_extend(mglGraph*, long, mglArg*, char const*, char const*)
mgls_face(mglGraph*, long, mglArg*, char const*, char const*)
mgls_facenum(mglGraph*, long, mglArg*, char const*, char const*)
mgls_facex(mglGraph*, long, mglArg*, char const*, char const*)
mgls_facey(mglGraph*, long, mglArg*, char const*, char const*)
mgls_facez(mglGraph*, long, mglArg*, char const*, char const*)
mgls_fall(mglGraph*, long, mglArg*, char const*, char const*)
mgls_fgets(mglGraph*, long, mglArg*, char const*, char const*)
mgls_fill(mglGraph*, long, mglArg*, char const*, char const*)
mgls_fillsample(mglGraph*, long, mglArg*, char const*, char const*)
mgls_fit(mglGraph*, long, mglArg*, char const*, char const*)
mgls_fits(mglGraph*, long, mglArg*, char const*, char const*)
mgls_flame2d(mglGraph*, long, mglArg*, char const*, char const*)
mgls_flow(mglGraph*, long, mglArg*, char const*, char const*)
mgls_fog(mglGraph*, long, mglArg*, char const*, char const*)
mgls_font(mglGraph*, long, mglArg*, char const*, char const*)
mgls_fourier(mglGraph*, long, mglArg*, char const*, char const*)
mgls_fplot(mglGraph*, long, mglArg*, char const*, char const*)
mgls_fsurf(mglGraph*, long, mglArg*, char const*, char const*)
mgls_grad(mglGraph*, long, mglArg*, char const*, char const*)
mgls_gray(mglGraph*, long, mglArg*, char const*, char const*)
mgls_grid(mglGraph*, long, mglArg*, char const*, char const*)
mgls_grid2(mglGraph*, long, mglArg*, char const*, char const*)
mgls_grid3(mglGraph*, long, mglArg*, char const*, char const*)
mgls_gridplot(mglGraph*, long, mglArg*, char const*, char const*)
mgls_gspline(mglGraph*, long, mglArg*, char const*, char const*)
mgls_hankel(mglGraph*, long, mglArg*, char const*, char const*)
mgls_hist(mglGraph*, long, mglArg*, char const*, char const*)
mgls_idset(mglGraph*, long, mglArg*, char const*, char const*)
mgls_ifs2d(mglGraph*, long, mglArg*, char const*, char const*)
mgls_ifs3d(mglGraph*, long, mglArg*, char const*, char const*)
mgls_ifsfile(mglGraph*, long, mglArg*, char const*, char const*)
mgls_import(mglGraph*, long, mglArg*, char const*, char const*)
mgls_info(mglGraph*, long, mglArg*, char const*, char const*)
mgls_inplot(mglGraph*, long, mglArg*, char const*, char const*)
mgls_insert(mglGraph*, long, mglArg*, char const*, char const*)
mgls_integrate(mglGraph*, long, mglArg*, char const*, char const*)
mgls_jacobian(mglGraph*, long, mglArg*, char const*, char const*)
mgls_join(mglGraph*, long, mglArg*, char const*, char const*)
mgls_label(mglGraph*, long, mglArg*, char const*, char const*)
mgls_lamerey(mglGraph*, long, mglArg*, char const*, char const*)
mgls_legend(mglGraph*, long, mglArg*, char const*, char const*)
mgls_legendmarks(mglGraph*, long, mglArg*, char const*, char const*)
mgls_light(mglGraph*, long, mglArg*, char const*, char const*) [clone .part.24]
mgls_light(mglGraph*, long, mglArg*, char const*, char const*)
mgls_limit(mglGraph*, long, mglArg*, char const*, char const*)
mgls_line(mglGraph*, long, mglArg*, char const*, char const*)
mgls_loadfont(mglGraph*, long, mglArg*, char const*, char const*)
mgls_logo(mglGraph*, long, mglArg*, char const*, char const*)
mgls_map(mglGraph*, long, mglArg*, char const*, char const*)
mgls_mark(mglGraph*, long, mglArg*, char const*, char const*)
mgls_marksize(mglGraph*, long, mglArg*, char const*, char const*)
mgls_mask(mglGraph*, long, mglArg*, char const*, char const*)
mgls_max(mglGraph*, long, mglArg*, char const*, char const*)
mgls_mesh(mglGraph*, long, mglArg*, char const*, char const*)
mgls_meshnum(mglGraph*, long, mglArg*, char const*, char const*)
mgls_min(mglGraph*, long, mglArg*, char const*, char const*)
mgls_mirror(mglGraph*, long, mglArg*, char const*, char const*)
mgls_modify(mglGraph*, long, mglArg*, char const*, char const*)
mgls_momentum(mglGraph*, long, mglArg*, char const*, char const*)
mgls_multiplot(mglGraph*, long, mglArg*, char const*, char const*)
mgls_multo(mglGraph*, long, mglArg*, char const*, char const*)
mgls_new(mglGraph*, long, mglArg*, char const*, char const*)
mgls_norm(mglGraph*, long, mglArg*, char const*, char const*)
mgls_normsl(mglGraph*, long, mglArg*, char const*, char const*)
mgls_ode(mglGraph*, long, mglArg*, char const*, char const*)
mgls_ohlc(mglGraph*, long, mglArg*, char const*, char const*)
mgls_origin(mglGraph*, long, mglArg*, char const*, char const*)
mgls_origintick(mglGraph*, long, mglArg*, char const*, char const*)
mgls_palette(mglGraph*, long, mglArg*, char const*, char const*)
mgls_pde(mglGraph*, long, mglArg*, char const*, char const*)
mgls_pde_adv(mglGraph*, long, mglArg*, char const*, char const*)
mgls_pendelta(mglGraph*, long, mglArg*, char const*, char const*)
mgls_perspective(mglGraph*, long, mglArg*, char const*, char const*)
mgls_pipe(mglGraph*, long, mglArg*, char const*, char const*)
mgls_plot(mglGraph*, long, mglArg*, char const*, char const*)
mgls_plotid(mglGraph*, long, mglArg*, char const*, char const*)
mgls_pmap(mglGraph*, long, mglArg*, char const*, char const*)
mgls_polygon(mglGraph*, long, mglArg*, char const*, char const*)
mgls_print(mglGraph*, long, mglArg*, char const*, char const*)
mgls_pulse(mglGraph*, long, mglArg*, char const*, char const*)
mgls_put(mglGraph*, long, mglArg*, char const*, char const*)
mgls_putsfit(mglGraph*, long, mglArg*, char const*, char const*)
mgls_qo2d(mglGraph*, long, mglArg*, char const*, char const*)
mgls_qo3d(mglGraph*, long, mglArg*, char const*, char const*)
mgls_quadplot(mglGraph*, long, mglArg*, char const*, char const*)
mgls_quality(mglGraph*, long, mglArg*, char const*, char const*)
mgls_radar(mglGraph*, long, mglArg*, char const*, char const*)
mgls_ranges(mglGraph*, long, mglArg*, char const*, char const*)
mgls_rasterize(mglGraph*, long, mglArg*, char const*, char const*)
mgls_ray(mglGraph*, long, mglArg*, char const*, char const*)
mgls_read(mglGraph*, long, mglArg*, char const*, char const*)
mgls_readall(mglGraph*, long, mglArg*, char const*, char const*)
mgls_readhdf(mglGraph*, long, mglArg*, char const*, char const*)
mgls_readmat(mglGraph*, long, mglArg*, char const*, char const*)
mgls_rearrange(mglGraph*, long, mglArg*, char const*, char const*)
mgls_rect(mglGraph*, long, mglArg*, char const*, char const*)
mgls_refill(mglGraph*, long, mglArg*, char const*, char const*)
mgls_region(mglGraph*, long, mglArg*, char const*, char const*)
mgls_reset(mglGraph*, long, mglArg*, char const*, char const*)
mgls_resize(mglGraph*, long, mglArg*, char const*, char const*)
mgls_rhomb(mglGraph*, long, mglArg*, char const*, char const*)
mgls_roll(mglGraph*, long, mglArg*, char const*, char const*)
mgls_roots(mglGraph*, long, mglArg*, char const*, char const*)
mgls_rotate(mglGraph*, long, mglArg*, char const*, char const*)
mgls_rotatetext(mglGraph*, long, mglArg*, char const*, char const*)
mgls_save(mglGraph*, long, mglArg*, char const*, char const*)
mgls_savehdf(mglGraph*, long, mglArg*, char const*, char const*)
mgls_scanfile(mglGraph*, long, mglArg*, char const*, char const*)
mgls_setsize(mglGraph*, long, mglArg*, char const*, char const*)
mgls_setsizescl(mglGraph*, long, mglArg*, char const*, char const*)
mgls_sew(mglGraph*, long, mglArg*, char const*, char const*)
mgls_shear(mglGraph*, long, mglArg*, char const*, char const*)
mgls_shearplot(mglGraph*, long, mglArg*, char const*, char const*)
mgls_sinfft(mglGraph*, long, mglArg*, char const*, char const*)
mgls_smooth(mglGraph*, long, mglArg*, char const*, char const*)
mgls_solve(mglGraph*, long, mglArg*, char const*, char const*)
mgls_sort(mglGraph*, long, mglArg*, char const*, char const*)
mgls_sphere(mglGraph*, long, mglArg*, char const*, char const*)
mgls_squeeze(mglGraph*, long, mglArg*, char const*, char const*)
mgls_stem(mglGraph*, long, mglArg*, char const*, char const*)
mgls_step(mglGraph*, long, mglArg*, char const*, char const*)
mgls_stfa(mglGraph*, long, mglArg*, char const*, char const*)
mgls_stfad(mglGraph*, long, mglArg*, char const*, char const*)
mgls_stickplot(mglGraph*, long, mglArg*, char const*, char const*)
mgls_subdata(mglGraph*, long, mglArg*, char const*, char const*)
mgls_subplot(mglGraph*, long, mglArg*, char const*, char const*)
mgls_subto(mglGraph*, long, mglArg*, char const*, char const*)
mgls_sum(mglGraph*, long, mglArg*, char const*, char const*)
mgls_surf(mglGraph*, long, mglArg*, char const*, char const*)
mgls_surf3(mglGraph*, long, mglArg*, char const*, char const*)
mgls_surf3a(mglGraph*, long, mglArg*, char const*, char const*)
mgls_surf3c(mglGraph*, long, mglArg*, char const*, char const*)
mgls_surf3ca(mglGraph*, long, mglArg*, char const*, char const*)
mgls_surfa(mglGraph*, long, mglArg*, char const*, char const*)
mgls_surfc(mglGraph*, long, mglArg*, char const*, char const*)
mgls_surfca(mglGraph*, long, mglArg*, char const*, char const*)
mgls_swap(mglGraph*, long, mglArg*, char const*, char const*)
mgls_table(mglGraph*, long, mglArg*, char const*, char const*)
mgls_tape(mglGraph*, long, mglArg*, char const*, char const*)
mgls_tens(mglGraph*, long, mglArg*, char const*, char const*)
mgls_ternary(mglGraph*, long, mglArg*, char const*, char const*)
mgls_text(mglGraph*, long, mglArg*, char const*, char const*)
mgls_textmark(mglGraph*, long, mglArg*, char const*, char const*)
mgls_ticklen(mglGraph*, long, mglArg*, char const*, char const*)
mgls_tickshift(mglGraph*, long, mglArg*, char const*, char const*)
mgls_ticktime(mglGraph*, long, mglArg*, char const*, char const*)
mgls_tile(mglGraph*, long, mglArg*, char const*, char const*)
mgls_tiles(mglGraph*, long, mglArg*, char const*, char const*)
mgls_title(mglGraph*, long, mglArg*, char const*, char const*)
mgls_tlabel(mglGraph*, long, mglArg*, char const*, char const*)
mgls_torus(mglGraph*, long, mglArg*, char const*, char const*)
mgls_trace(mglGraph*, long, mglArg*, char const*, char const*)
mgls_traj(mglGraph*, long, mglArg*, char const*, char const*)
mgls_transform(mglGraph*, long, mglArg*, char const*, char const*)
mgls_transforma(mglGraph*, long, mglArg*, char const*, char const*)
mgls_transpose(mglGraph*, long, mglArg*, char const*, char const*)
mgls_transptype(mglGraph*, long, mglArg*, char const*, char const*)
mgls_triangulate(mglGraph*, long, mglArg*, char const*, char const*)
mgls_tricont(mglGraph*, long, mglArg*, char const*, char const*)
mgls_tricontv(mglGraph*, long, mglArg*, char const*, char const*)
mgls_tridmat(mglGraph*, long, mglArg*, char const*, char const*)
mgls_triplot(mglGraph*, long, mglArg*, char const*, char const*)
mgls_tube(mglGraph*, long, mglArg*, char const*, char const*)
mgls_tuneticks(mglGraph*, long, mglArg*, char const*, char const*)
mgls_var(mglGraph*, long, mglArg*, char const*, char const*)
mgls_vect(mglGraph*, long, mglArg*, char const*, char const*)
mgls_vect3(mglGraph*, long, mglArg*, char const*, char const*)
mgls_version(mglGraph*, long, mglArg*, char const*, char const*)
mgls_view(mglGraph*, long, mglArg*, char const*, char const*)
mgls_wavelet(mglGraph*, long, mglArg*, char const*, char const*)
mgls_write(mglGraph*, long, mglArg*, char const*, char const*)
mgls_xlabel(mglGraph*, long, mglArg*, char const*, char const*)
mgls_xrange(mglGraph*, long, mglArg*, char const*, char const*)
mgls_xtick(mglGraph*, long, mglArg*, char const*, char const*)
mgls_ylabel(mglGraph*, long, mglArg*, char const*, char const*)
mgls_yrange(mglGraph*, long, mglArg*, char const*, char const*)
mgls_ytick(mglGraph*, long, mglArg*, char const*, char const*)
mgls_zlabel(mglGraph*, long, mglArg*, char const*, char const*)
mgls_zoom(mglGraph*, long, mglArg*, char const*, char const*)
mgls_zoomaxis(mglGraph*, long, mglArg*, char const*, char const*)
mgls_zrange(mglGraph*, long, mglArg*, char const*, char const*)
mgls_ztick(mglGraph*, long, mglArg*, char const*, char const*)
mglScaleAxis(double&, double&, double&, double, double)
mglSegment* std::__uninitialized_copy<false>::__uninit_copy<mglSegment*, mglSegment*>(mglSegment*, mglSegment*, mglSegment*)
mglSegment::set(double, double, double, double, long, long, long, mglDataA const*, mglDataA const*, mglDataA const*)
mglSpline3(double const*, long, long, long, double, double, double, double*, double*, double*)
mglSpline3C(std::complex<double> const*, long, long, long, double, double, double, std::complex<double>*, std::complex<double>*, std::complex<double>*)
mglSpline3Cs(std::complex<double> const*, long, long, long, double, double, double)
mglSpline3s(double const*, long, long, long, double, double, double)
mglStack<mglActivePos>::~mglStack()
mglStack<mglPnt>::~mglStack()
mglStack<mglPnt>::clear()
mglStack<mglPnt>::reserve(unsigned int)
mglStack<mglPrim>::~mglStack()
mglStack<mglPrim>::clear()
mglStack<mglPrim>::reserve(unsigned int)
mglStartThread(void (mglCanvas::*)(long, long, void const*), mglCanvas*, long, void const*)
mglStartThread(void* (*)(void*), void (*)(mglThreadD*, double*), long, double*, double const*, double const*, long const*, void const*, double const*, double const*, char const*)
mglStartThreadC(void* (*)(void*), void (*)(mglThreadC*, std::complex<double>*), long, std::complex<double>*, std::complex<double> const*, std::complex<double> const*, long const*, void const*, std::complex<double> const*, std::complex<double> const*, char const*)
mglStartThreadT(void* (*)(void*), long, void*, double*, void const*, void**, long const*, void const*, void const*)
mglStartThreadV(void* (*)(void*), long, double*, void const*, void const*, long const*, void const*, double const*)
mglStartThreadV(void* (*)(void*), long, std::complex<double>*, void const*, void const*, long const*, void const*, double const*)
mglText* std::__uninitialized_copy<false>::__uninit_copy<mglText*, mglText*>(mglText*, mglText*, mglText*)
mglText::~mglText()
mglText::mglText(mglText const&)
mglText::mglText(std::basic_string<wchar_t, std::char_traits<wchar_t>, std::allocator<wchar_t> > const&, double)
mglText::mglText(wchar_t const*, char const*, double)
mglText::operator=(mglText const&)
mglTexture* std::__uninitialized_copy<false>::__uninit_copy<mglTexture*, mglTexture*>(mglTexture*, mglTexture*, mglTexture*)
mglTexture::GetC(double, double) const
mglTexture::GetC(double, double, mglPnt&) const
mglTexture::GetRGBA(unsigned char*) const
mglTexture::GetRGBAOBJ(unsigned char*) const
mglTexture::GetRGBAPRC(unsigned char*) const
mglTexture::mglTexture()
mglTexture::mglTexture(char const*, int, double)
mglTexture::mglTexture(mglTexture const&)
mglTexture::operator=(mglTexture const&)
mglTexture::Set(char const*, int, double)
mglWnd::~mglWnd()
mglWnd::~mglWnd()
mglWnd::~mglWnd()
mglWnd::Widget()
mgm(double, double)
mgp(double, double)
mgz1(double)
mgz2(double, double)
mgzz(double, double)
mul(double, double)
mul1(double, double)
mul2(double, double)
mulc(std::complex<double>, std::complex<double>)
my_png_flush(png_struct_def*)
my_png_write_data(png_struct_def*, unsigned char*, unsigned int)
NC
next_sl_xpm
non-virtual thunk to QMathGL::~QMathGL()
non-virtual thunk to QMathGL::~QMathGL()
non-virtual thunk to QWidget::devType() const
non-virtual thunk to QWidget::initPainter(QPainter*) const
non-virtual thunk to QWidget::metric(QPaintDevice::PaintDeviceMetric) const
non-virtual thunk to QWidget::paintEngine() const
non-virtual thunk to QWidget::redirected(QPoint*) const
non-virtual thunk to QWidget::sharedPainter() const
norm_1_xpm
normc(std::complex<double>)
ObjGroup::addColourInfo(mglPnt const&)
ObjGroup::addLines(unsigned int, unsigned int, double const (*) [3])
ObjMaterials::addColor(mglColor const&)
ObjXYZs::addVertexCoords(double, double, double)
ok_xpm
operator delete(void*)
operator delete[](void*)
operator new(unsigned int)
operator new[](unsigned int)
operator+(QString const&, char const*)
operator+(QString const&, QString const&)
oPRCFile::~oPRCFile()
oPRCFile::addBezierCurve(unsigned int, double const (*) [3], RGBAColour const&)
oPRCFile::addColour(RGBAColour const&)
oPRCFile::addColourWidth(RGBAColour const&, double)
oPRCFile::addCone(double, double, PRCmaterial const&, double const*, double const*, double const*, double, double const*)
oPRCFile::addCurve(unsigned int, unsigned int, double const (*) [3], double const*, RGBAColour const&, double const*)
oPRCFile::addCylinder(double, double, PRCmaterial const&, double const*, double const*, double const*, double, double const*)
oPRCFile::addDisk(double, PRCmaterial const&, double const*, double const*, double const*, double, double const*)
oPRCFile::addHemisphere(double, PRCmaterial const&, double const*, double const*, double const*, double, double const*)
oPRCFile::addLine(unsigned int, double const (*) [3], RGBAColour const&, double)
oPRCFile::addLines(unsigned int, double const (*) [3], unsigned int, unsigned int const*, RGBAColour const&, double, bool, unsigned int, RGBAColour const*, unsigned int, unsigned int const*)
oPRCFile::addMaterial(PRCmaterial const&)
oPRCFile::addPatch(double const (*) [3], PRCmaterial const&)
oPRCFile::addPoint(double const*, RGBAColour const&, double)
oPRCFile::addPoint(double, double, double, RGBAColour const&, double)
oPRCFile::addPoints(unsigned int, double const (*) [3], RGBAColour const&, double)
oPRCFile::addPoints(unsigned int, double const (*) [3], unsigned int)
oPRCFile::addQuad(double const (*) [3], RGBAColour const*)
oPRCFile::addQuads(unsigned int, double const (*) [3], unsigned int, unsigned int const (*) [4], PRCmaterial const&, unsigned int, double const (*) [3], unsigned int const (*) [4], unsigned int, double const (*) [2], unsigned int const (*) [4], unsigned int, RGBAColour const*, unsigned int const (*) [4], unsigned int, PRCmaterial const*, unsigned int const*, double)
oPRCFile::addRectangle(double const (*) [3], PRCmaterial const&)
oPRCFile::addSegment(double const*, double const*, RGBAColour const&, double)
oPRCFile::addSphere(double, PRCmaterial const&, double const*, double const*, double const*, double, double const*)
oPRCFile::addSurface(unsigned int, unsigned int, unsigned int, unsigned int, double const (*) [3], double const*, double const*, PRCmaterial const&, double const*)
oPRCFile::addTexturedMaterial(PRCmaterial const&, unsigned int, PRCtexture const* const*)
oPRCFile::addTorus(double, double, double, double, PRCmaterial const&, double const*, double const*, double const*, double, double const*)
oPRCFile::addTransform(double const*) [clone .part.1312]
oPRCFile::addTransform(double const*)
oPRCFile::addTransform(double const*, double const*, double const*, double)
oPRCFile::addTransform(PRCGeneralTransformation3d*&)
oPRCFile::addTriangles(unsigned int, double const (*) [3], unsigned int, unsigned int const (*) [3], PRCmaterial const&, unsigned int, double const (*) [3], unsigned int const (*) [3], unsigned int, double const (*) [2], unsigned int const (*) [3], unsigned int, RGBAColour const*, unsigned int const (*) [3], unsigned int, PRCmaterial const*, unsigned int const*, double)
oPRCFile::addTube(unsigned int, double const (*) [3], double const (*) [3], bool, PRCmaterial const&, double const*, double const*, double const*, double, double const*)
oPRCFile::begingroup(char const*, PRCoptions const*, double const*)
oPRCFile::calculate_unique_name(ContentPRCBase const*, ContentPRCBase const*)
oPRCFile::createLines(unsigned int, double const (*) [3], unsigned int, unsigned int const*, bool, unsigned int, RGBAColour const*, unsigned int, unsigned int const*)
oPRCFile::createQuadMesh(unsigned int, double const (*) [3], unsigned int, unsigned int const (*) [4], unsigned int, unsigned int, double const (*) [3], unsigned int const (*) [4], unsigned int, double const (*) [2], unsigned int const (*) [4], unsigned int, RGBAColour const*, unsigned int const (*) [4], unsigned int, unsigned int const*, unsigned int const*, double)
oPRCFile::createSegments(unsigned int, double const (*) [3], unsigned int, unsigned int const (*) [2], bool, unsigned int, RGBAColour const*, unsigned int const (*) [2])
oPRCFile::createTriangleMesh(unsigned int, double const (*) [3], unsigned int, unsigned int const (*) [3], unsigned int, unsigned int, double const (*) [3], unsigned int const (*) [3], unsigned int, double const (*) [2], unsigned int const (*) [3], unsigned int, RGBAColour const*, unsigned int const (*) [3], unsigned int, unsigned int const*, unsigned int const*, double)
oPRCFile::doGroup(PRCgroup&)
oPRCFile::endgroup()
oPRCFile::findGroup()
oPRCFile::finish()
oPRCFile::getSize()
oPRCFile::oPRCFile(std::basic_string<char, std::char_traits<char>, std::allocator<char> > const&, double, unsigned int)
oPRCFile::serializeModelFileData(PRCbitStream&)
oPRCFile::useLines(unsigned int, unsigned int, double const*)
oPRCFile::useLines(unsigned int, unsigned int, double const*, double const*, double const*, double)
oPRCFile::useMesh(unsigned int, unsigned int, double const*)
oPRCFile::useMesh(unsigned int, unsigned int, double const*, double const*, double const*, double)
pause_xpm
polygon_xpm
pow1(double, double)
pow2(double, double)
powc(std::complex<double>, std::complex<double>)
power_of_two(unsigned int)
PRC3DTess::~PRC3DTess()
PRC3DTess::~PRC3DTess()
PRC3DTess::addTessFace(PRCTessFace*&)
PRC3DTess::PRC3DTess()
PRC3DTess::serialize3DTess(PRCbitStream&)
PRC3DTess::serializeBaseTessData(PRCbitStream&)
PRC3DWireTess::~PRC3DWireTess()
PRC3DWireTess::~PRC3DWireTess()
PRC3DWireTess::serialize3DWireTess(PRCbitStream&)
PRC3DWireTess::serializeBaseTessData(PRCbitStream&)
PRCAnnotationItem::serializeAnnotationItem(PRCbitStream&)
PRCAttribute::~PRCAttribute()
PRCAttribute::serializeAttribute(PRCbitStream&) const
PRCAttributeEntry::serializeAttributeEntry(PRCbitStream&) const
PRCAttributes::serializeAttributes(PRCbitStream&) const
PRCBaseGeometry::~PRCBaseGeometry()
PRCBaseGeometry::serializeBaseGeometry(PRCbitStream&)
PRCBaseTopology::~PRCBaseTopology()
PRCBaseTopology::serializeBaseTopology(PRCbitStream&)
PRCbitStream::compress()
PRCbitStream::getAChunk()
PRCbitStream::getData()
PRCbitStream::getSize() const
PRCbitStream::nextBit()
PRCbitStream::nextByte()
PRCbitStream::operator<<(bool)
PRCbitStream::operator<<(char const*)
PRCbitStream::operator<<(double)
PRCbitStream::operator<<(int)
PRCbitStream::operator<<(std::basic_string<char, std::char_traits<char>, std::allocator<char> > const&)
PRCbitStream::operator<<(unsigned char)
PRCbitStream::operator<<(unsigned int)
PRCbitStream::write(std::basic_ostream<char, std::char_traits<char> >&) const
PRCbitStream::writeBit(bool)
PRCbitStream::writeBits(unsigned int, unsigned char) [clone .part.4]
PRCbitStream::writeBits(unsigned int, unsigned char)
PRCbitStream::writeByte(unsigned char)
PRCBlend01::~PRCBlend01()
PRCBlend01::~PRCBlend01()
PRCBlend01::serializeBlend01(PRCbitStream&)
PRCBlend01::serializeSurface(PRCbitStream&)
PRCBody::~PRCBody()
PRCBody::~PRCBody()
PRCBody::serializeTopoItem(PRCbitStream&)
PRCBody::serialTolerance()
PRCBoundingBox::serializeBoundingBox(PRCbitStream&)
PRCBrepData::~PRCBrepData()
PRCBrepData::~PRCBrepData()
PRCBrepData::addConnex(PRCConnex*&)
PRCBrepData::PRCBrepData()
PRCBrepData::serializeBody(PRCbitStream&)
PRCBrepData::serializeBrepData(PRCbitStream&)
PRCBrepModel::~PRCBrepModel()
PRCBrepModel::~PRCBrepModel()
PRCBrepModel::PRCBrepModel(std::basic_string<char, std::char_traits<char>, std::allocator<char> >)
PRCBrepModel::serializeBrepModel(PRCbitStream&)
PRCBrepModel::serializeRepresentationItem(PRCbitStream&)
PRCCartesianTransformation3d::~PRCCartesianTransformation3d()
PRCCartesianTransformation3d::~PRCCartesianTransformation3d()
PRCCartesianTransformation3d::serializeCartesianTransformation3d(PRCbitStream&) const
PRCCartesianTransformation3d::serializeTransformation3d(PRCbitStream&) const
PRCCircle::~PRCCircle()
PRCCircle::~PRCCircle()
PRCCircle::serializeCircle(PRCbitStream&)
PRCCircle::serializeCurve(PRCbitStream&)
PRCComposite::serializeComposite(PRCbitStream&)
PRCCompressedBrepData::~PRCCompressedBrepData()
PRCCompressedBrepData::~PRCCompressedBrepData()
PRCCompressedBrepData::PRCCompressedBrepData()
PRCCompressedBrepData::serializeBody(PRCbitStream&)
PRCCompressedBrepData::serializeCompressedBrepData(PRCbitStream&)
PRCCompressedBrepData::serializeCompressedShell(PRCbitStream&)
PRCCompressedBrepData::serialTolerance()
PRCCompressedFace::serializeCompressedAnaNurbs(PRCbitStream&, double)
PRCCompressedFace::serializeCompressedFace(PRCbitStream&, double)
PRCCompressedFace::serializeCompressedNurbs(PRCbitStream&, double)
PRCCompressedFace::serializeContentCompressedFace(PRCbitStream&)
PRCCone::~PRCCone()
PRCCone::~PRCCone()
PRCCone::serializeCone(PRCbitStream&)
PRCCone::serializeSurface(PRCbitStream&)
PRCConnex::~PRCConnex()
PRCConnex::~PRCConnex()
PRCConnex::addShell(PRCShell*&)
PRCConnex::PRCConnex()
PRCConnex::serializeConnex(PRCbitStream&)
PRCConnex::serializeTopoItem(PRCbitStream&)
PRCContentBaseTessData::serializeContentBaseTessData(PRCbitStream&)
PRCContentBody::serializeContentBody(PRCbitStream&)
PRCContentCurve::serializeContentCurve(PRCbitStream&)
PRCContentSurface::serializeContentSurface(PRCbitStream&)
PRCContentWireEdge::serializeContentWireEdge(PRCbitStream&)
PRCCoordinateSystem::~PRCCoordinateSystem()
PRCCoordinateSystem::~PRCCoordinateSystem()
PRCCoordinateSystem::PRCCoordinateSystem(std::basic_string<char, std::char_traits<char>, std::allocator<char> >)
PRCCoordinateSystem::serializeCoordinateSystem(PRCbitStream&)
PRCCoordinateSystem::serializeRepresentationItem(PRCbitStream&)
PRCCurve::~PRCCurve()
PRCCurve::~PRCCurve()
PRCCylinder::~PRCCylinder()
PRCCylinder::~PRCCylinder()
PRCCylinder::serializeCylinder(PRCbitStream&)
PRCCylinder::serializeSurface(PRCbitStream&)
PRCDomain::serializeDomain(PRCbitStream&)
PRCFace::~PRCFace()
PRCFace::~PRCFace()
PRCFace::serializeFace(PRCbitStream&)
PRCFace::serializeTopoItem(PRCbitStream&)
PRCFileStructure::~PRCFileStructure()
PRCFileStructure::add3DTess(PRC3DTess*&)
PRCFileStructure::add3DWireTess(PRC3DWireTess*&)
PRCFileStructure::addCoordinateSystem(PRCCoordinateSystem*&)
PRCFileStructure::addCoordinateSystemUnique(PRCCoordinateSystem*&)
PRCFileStructure::addMaterialGeneric(PRCMaterialGeneric*&)
PRCFileStructure::addMaterialGenericUnique(PRCMaterialGeneric*&)
PRCFileStructure::addPartDefinition(PRCPartDefinition*&)
PRCFileStructure::addPicture(EPRCPictureDataFormat, unsigned int, unsigned char const*, unsigned int, unsigned int, std::basic_string<char, std::char_traits<char>, std::allocator<char> >)
PRCFileStructure::addPicture(PRCPicture*&)
PRCFileStructure::addPictureUnique(PRCPicture*&)
PRCFileStructure::addProductOccurrence(PRCProductOccurrence*&)
PRCFileStructure::addRgbColor(double, double, double)
PRCFileStructure::addRgbColorUnique(double, double, double)
PRCFileStructure::addStyle(PRCStyle*&)
PRCFileStructure::addStyleUnique(PRCStyle*&)
PRCFileStructure::addTextureApplication(PRCTextureApplication*&)
PRCFileStructure::addTextureApplicationUnique(PRCTextureApplication*&)
PRCFileStructure::addTextureDefinition(PRCTextureDefinition*&)
PRCFileStructure::addTextureDefinitionUnique(PRCTextureDefinition*&)
PRCFileStructure::addTopoContext(PRCTopoContext*&)
PRCFileStructure::addUncompressedFile(PRCUncompressedFile*&)
PRCFileStructure::addUncompressedFileUnique(PRCUncompressedFile*&)
PRCFileStructure::getSize()
PRCFileStructure::getTopoContext(PRCTopoContext*&)
PRCFileStructure::prepare()
PRCFileStructure::serializeFileStructureExtraGeometry(PRCbitStream&)
PRCFileStructure::serializeFileStructureGeometry(PRCbitStream&)
PRCFileStructure::serializeFileStructureGlobals(PRCbitStream&)
PRCFileStructure::serializeFileStructureTessellation(PRCbitStream&)
PRCFileStructure::serializeFileStructureTree(PRCbitStream&)
PRCFileStructure::write(std::basic_ostream<char, std::char_traits<char> >&)
PRCFileStructureInformation::getSize()
PRCFileStructureInformation::write(std::basic_ostream<char, std::char_traits<char> >&)
PRCFontKeysSameFont::serializeFontKeysSameFont(PRCbitStream&)
PRCGeneralTransformation3d::~PRCGeneralTransformation3d()
PRCGeneralTransformation3d::~PRCGeneralTransformation3d()
PRCGeneralTransformation3d::serializeGeneralTransformation3d(PRCbitStream&) const
PRCGeneralTransformation3d::serializeTransformation3d(PRCbitStream&) const
PRCGraphics::serializeGraphics(PRCbitStream&)
PRCGraphics::serializeGraphicsForced(PRCbitStream&)
PRCgroup::~PRCgroup()
PRCgroup::PRCgroup(PRCgroup const&)
PRCHeader::getSize()
PRCHeader::write(std::basic_ostream<char, std::char_traits<char> >&)
PRCInterval::serializeInterval(PRCbitStream&)
PRCLinePattern::serializeLinePattern(PRCbitStream&)
PRCMarkup::serializeMarkup(PRCbitStream&)
PRCMarkupTess::serializeMarkupTess(PRCbitStream&)
PRCMaterial::~PRCMaterial()
PRCMaterial::~PRCMaterial()
PRCmaterial::operator<(PRCmaterial const&) const
PRCMaterialGeneric::~PRCMaterialGeneric()
PRCMaterialGeneric::~PRCMaterialGeneric()
PRCMaterialGeneric::serializeMaterial(PRCbitStream&)
PRCMaterialGeneric::serializeMaterialGeneric(PRCbitStream&)
PRCNURBSCurve::~PRCNURBSCurve()
PRCNURBSCurve::~PRCNURBSCurve()
PRCNURBSCurve::serializeCurve(PRCbitStream&)
PRCNURBSCurve::serializeNURBSCurve(PRCbitStream&)
PRCNURBSSurface::~PRCNURBSSurface()
PRCNURBSSurface::~PRCNURBSSurface()
PRCNURBSSurface::serializeNURBSSurface(PRCbitStream&)
PRCNURBSSurface::serializeSurface(PRCbitStream&)
PRCParameterization::serializeParameterization(PRCbitStream&)
PRCPartDefinition::~PRCPartDefinition()
PRCPartDefinition::addBrepModel(PRCBrepModel*&)
PRCPartDefinition::addPointSet(PRCPointSet*&)
PRCPartDefinition::addPolyBrepModel(PRCPolyBrepModel*&)
PRCPartDefinition::addPolyWire(PRCPolyWire*&)
PRCPartDefinition::addRepresentationItem(PRCRepresentationItem*&)
PRCPartDefinition::addSet(PRCSet*&)
PRCPartDefinition::addWire(PRCWire*&)
PRCPartDefinition::serializePartDefinition(PRCbitStream&)
PRCPicture::serializePicture(PRCbitStream&)
PRCPointSet::~PRCPointSet()
PRCPointSet::~PRCPointSet()
PRCPointSet::PRCPointSet(std::basic_string<char, std::char_traits<char>, std::allocator<char> >)
PRCPointSet::serializePointSet(PRCbitStream&)
PRCPointSet::serializeRepresentationItem(PRCbitStream&)
PRCPolyBrepModel::~PRCPolyBrepModel()
PRCPolyBrepModel::~PRCPolyBrepModel()
PRCPolyBrepModel::PRCPolyBrepModel(std::basic_string<char, std::char_traits<char>, std::allocator<char> >)
PRCPolyBrepModel::serializePolyBrepModel(PRCbitStream&)
PRCPolyBrepModel::serializeRepresentationItem(PRCbitStream&)
PRCPolyLine::~PRCPolyLine()
PRCPolyLine::~PRCPolyLine()
PRCPolyLine::serializeCurve(PRCbitStream&)
PRCPolyLine::serializePolyLine(PRCbitStream&)
PRCPolyWire::~PRCPolyWire()
PRCPolyWire::~PRCPolyWire()
PRCPolyWire::PRCPolyWire(std::basic_string<char, std::char_traits<char>, std::allocator<char> >)
PRCPolyWire::serializePolyWire(PRCbitStream&)
PRCPolyWire::serializeRepresentationItem(PRCbitStream&)
PRCProductOccurrence::~PRCProductOccurrence()
PRCProductOccurrence::serializeProductOccurrence(PRCbitStream&)
PRCReferenceUniqueIdentifier::serializeReferenceUniqueIdentifier(PRCbitStream&)
PRCRepresentationItem::~PRCRepresentationItem()
PRCRepresentationItem::~PRCRepresentationItem()
PRCRepresentationItem::PRCRepresentationItem(unsigned int, std::basic_string<char, std::char_traits<char>, std::allocator<char> >)
PRCRepresentationItemContent::serializeRepresentationItemContent(PRCbitStream&)
PRCRgbColor::serializeRgbColor(PRCbitStream&)
PRCRuled::~PRCRuled()
PRCRuled::~PRCRuled()
PRCRuled::serializeRuled(PRCbitStream&)
PRCRuled::serializeSurface(PRCbitStream&)
PRCSet::~PRCSet()
PRCSet::~PRCSet()
PRCSet::addBrepModel(PRCBrepModel*&)
PRCSet::addPointSet(PRCPointSet*&)
PRCSet::addPolyBrepModel(PRCPolyBrepModel*&)
PRCSet::addPolyWire(PRCPolyWire*&)
PRCSet::addRepresentationItem(PRCRepresentationItem*&)
PRCSet::addSet(PRCSet*&)
PRCSet::addWire(PRCWire*&)
PRCSet::serializeRepresentationItem(PRCbitStream&)
PRCSet::serializeSet(PRCbitStream&)
PRCShell::~PRCShell()
PRCShell::~PRCShell()
PRCShell::addFace(PRCFace*&, unsigned char)
PRCShell::PRCShell()
PRCShell::serializeShell(PRCbitStream&)
PRCShell::serializeTopoItem(PRCbitStream&)
PRCSingleAttribute::~PRCSingleAttribute()
PRCSingleAttribute::serializeSingleAttribute(PRCbitStream&) const
PRCSingleWireBody::~PRCSingleWireBody()
PRCSingleWireBody::~PRCSingleWireBody()
PRCSingleWireBody::serializeBody(PRCbitStream&)
PRCSingleWireBody::serializeSingleWireBody(PRCbitStream&)
PRCSphere::~PRCSphere()
PRCSphere::~PRCSphere()
PRCSphere::serializeSphere(PRCbitStream&)
PRCSphere::serializeSurface(PRCbitStream&)
PRCStartHeader::getStartHeaderSize() const
PRCStartHeader::getUncompressedFilesSize() const
PRCStartHeader::serializeStartHeader(std::basic_ostream<char, std::char_traits<char> >&) const
PRCStartHeader::serializeUncompressedFiles(std::basic_ostream<char, std::char_traits<char> >&) const
PRCStyle::PRCStyle(std::basic_string<char, std::char_traits<char>, std::allocator<char> >)
PRCStyle::serializeCategory1LineStyle(PRCbitStream&)
PRCSurface::~PRCSurface()
PRCSurface::~PRCSurface()
PRCTess::~PRCTess()
PRCTess::~PRCTess()
PRCTessFace::serializeTessFace(PRCbitStream&)
PRCtessquad::PRCtessquad(PRCtessquad const&)
PRCTextureApplication::~PRCTextureApplication()
PRCTextureApplication::~PRCTextureApplication()
PRCTextureApplication::serializeMaterial(PRCbitStream&)
PRCTextureApplication::serializeTextureApplication(PRCbitStream&)
PRCTextureDefinition::serializeTextureDefinition(PRCbitStream&)
PRCTopoContext::addBrepData(PRCBrepData*&)
PRCTopoContext::addCompressedBrepData(PRCCompressedBrepData*&)
PRCTopoContext::addSingleWireBody(PRCSingleWireBody*&)
PRCTopoContext::serializeContextAndBodies(PRCbitStream&)
PRCTopoContext::serializeContextGraphics(PRCbitStream&)
PRCTopoContext::serializeGeometrySummary(PRCbitStream&)
PRCTopoContext::serializeTopoContext(PRCbitStream&)
PRCTopoItem::~PRCTopoItem()
PRCTopoItem::~PRCTopoItem()
PRCTorus::~PRCTorus()
PRCTorus::~PRCTorus()
PRCTorus::serializeSurface(PRCbitStream&)
PRCTorus::serializeTorus(PRCbitStream&)
PRCTransformation::serializeTransformation(PRCbitStream&)
PRCTransformation3d::~PRCTransformation3d()
PRCTransformation3d::~PRCTransformation3d()
prctriangles::addColourInfo(mglPnt const&)
prctriangles::addPoint(float, float, float)
PRCUncompressedFile::getSize() const
PRCUncompressedFile::serializeUncompressedFile(std::basic_ostream<char, std::char_traits<char> >&) const
PRCUniqueId::serializeCompressedUniqueId(PRCbitStream&) const
PRCUniqueId::serializeFileStructureUncompressedUniqueId(std::basic_ostream<char, std::char_traits<char> >&) const
PRCUnit::serializeUnit(PRCbitStream&)
PRCUVParameterization::serializeUVParameterization(PRCbitStream&)
PRCVector2d::Length()
PRCVector2d::Normalize()
PRCVector2d::serializeVector2d(PRCbitStream&)
PRCVector3d::Length()
PRCVector3d::Normalize()
PRCWire::~PRCWire()
PRCWire::~PRCWire()
PRCWire::serializeRepresentationItem(PRCbitStream&)
PRCWire::serializeWire(PRCbitStream&)
PRCWireEdge::~PRCWireEdge()
PRCWireEdge::~PRCWireEdge()
PRCWireEdge::serializeTopoItem(PRCbitStream&)
PRCWireEdge::serializeWireEdge(PRCbitStream&)
prev_sl_xpm
put_desc(mglBase*, void*, bool, char const*, char const*, char const*, char const*, char const*)
put_line(mglBase*, long, double, unsigned int, int)
QByteArray::~QByteArray()
QMathGL::~QMathGL()
QMathGL::~QMathGL()
QMathGL::~QMathGL()
QMathGL::about()
QMathGL::aboutQt()
QMathGL::addArc()
QMathGL::addCurve()
QMathGL::addEllipse()
QMathGL::addLine()
QMathGL::addMark()
QMathGL::addPolygon(int)
QMathGL::addRect()
QMathGL::addRhomb()
QMathGL::addText(QString)
QMathGL::adjust()
QMathGL::afterPlot()
QMathGL::alphaChanged(bool)
QMathGL::animation(bool)
QMathGL::askStyle(int)
QMathGL::copy()
QMathGL::copyClickCoor()
QMathGL::customDraw(double, double, double, double, bool)
QMathGL::customZoom(double, double, double, double, double, double, double)
QMathGL::doubleClick(int)
QMathGL::drawPrim()
QMathGL::exportBPS(QString)
QMathGL::exportEPS(QString)
QMathGL::exportGIF(QString)
QMathGL::exportJPG(QString)
QMathGL::exportMGLD(QString)
QMathGL::exportOBJ(QString)
QMathGL::exportOFF(QString)
QMathGL::exportPNG(QString)
QMathGL::exportPNGs(QString)
QMathGL::exportPRC(QString)
QMathGL::exportSTL(QString)
QMathGL::exportSVG(QString)
QMathGL::exportTEX(QString)
QMathGL::exportTGA(QString)
QMathGL::exportXYZ(QString)
QMathGL::frameChanged(int)
QMathGL::getClass()
QMathGL::getRatio()
QMathGL::gridChanged(int)
QMathGL::imgSize(int, int)
QMathGL::lightChanged(bool)
QMathGL::metaObject() const
QMathGL::mouseClick(double, double, double)
QMathGL::mouseDoubleClickEvent(QMouseEvent*)
QMathGL::mouseMoveEvent(QMouseEvent*)
QMathGL::mousePressEvent(QMouseEvent*)
QMathGL::mouseReleaseEvent(QMouseEvent*)
QMathGL::nextSlide()
QMathGL::objChanged(int)
QMathGL::paintEvent(QPaintEvent*)
QMathGL::pauseChanged(bool)
QMathGL::perChanged(int)
QMathGL::phiChanged(int)
QMathGL::posChanged(QString)
QMathGL::prevSlide()
QMathGL::print()
QMathGL::QMathGL(QWidget*, QFlags<Qt::WindowType>)
QMathGL::QMathGL(QWidget*, QFlags<Qt::WindowType>)
QMathGL::qt_metacall(QMetaObject::Call, int, void**)
QMathGL::qt_metacast(char const*)
QMathGL::qt_static_metacall(QObject*, QMetaObject::Call, int, void**)
QMathGL::refresh()
QMathGL::refreshData()
QMathGL::refreshHQ()
QMathGL::resizeEvent(QResizeEvent*)
QMathGL::restore()
QMathGL::rotateChanged(bool)
QMathGL::setAlpha(bool)
QMathGL::setCustDraw(bool)
QMathGL::setCustZoom(bool)
QMathGL::setDotsPreview(bool)
QMathGL::setDraw(int (*)(mglBase*, void*), void*)
QMathGL::setDraw(mglDraw*)
QMathGL::setGraph(mglBase*)
QMathGL::setGrid(bool)
QMathGL::setLight(bool)
QMathGL::setMGLFont(QString)
QMathGL::setPause(bool)
QMathGL::setPer(int)
QMathGL::setPhi(int)
QMathGL::setRotate(bool)
QMathGL::setShiftScl(double)
QMathGL::setSize(int, int)
QMathGL::setStyle(int, QString)
QMathGL::setTet(int)
QMathGL::setViewYZ(bool)
QMathGL::setZoom(bool)
QMathGL::setZoomScl(double)
QMathGL::shiftDown()
QMathGL::shiftLeft()
QMathGL::shiftRight()
QMathGL::shiftUp()
QMathGL::showWarn(QString)
QMathGL::staticMetaObject
QMathGL::stop()
QMathGL::tetChanged(int)
QMathGL::tr(char const*, char const*, int)
QMathGL::update()
QMathGL::usePrimChanged(bool)
QMathGL::viewYZChanged(bool)
QMathGL::wheelEvent(QWheelEvent*)
QMathGL::zoomChanged(bool)
QMathGL::zoomIn()
QMathGL::zoomOut()
QObject::childEvent(QChildEvent*)
QObject::connectNotify(QMetaMethod const&)
QObject::customEvent(QEvent*)
QObject::disconnectNotify(QMetaMethod const&)
QObject::eventFilter(QObject*, QEvent*)
QObject::timerEvent(QTimerEvent*)
QString::~QString()
QString::operator==(char const*) const
QString::section(QChar, int, int, QFlags<QString::SectionFlag>) const
qt_meta_data_QMathGL
qt_meta_stringdata_QMathGL
QWidget::actionEvent(QActionEvent*)
QWidget::changeEvent(QEvent*)
QWidget::closeEvent(QCloseEvent*)
QWidget::contextMenuEvent(QContextMenuEvent*)
QWidget::devType() const
QWidget::dragEnterEvent(QDragEnterEvent*)
QWidget::dragLeaveEvent(QDragLeaveEvent*)
QWidget::dragMoveEvent(QDragMoveEvent*)
QWidget::dropEvent(QDropEvent*)
QWidget::enterEvent(QEvent*)
QWidget::event(QEvent*)
QWidget::focusInEvent(QFocusEvent*)
QWidget::focusNextPrevChild(bool)
QWidget::focusOutEvent(QFocusEvent*)
QWidget::hasHeightForWidth() const
QWidget::heightForWidth(int) const
QWidget::hideEvent(QHideEvent*)
QWidget::initPainter(QPainter*) const
QWidget::inputMethodEvent(QInputMethodEvent*)
QWidget::inputMethodQuery(Qt::InputMethodQuery) const
QWidget::keyPressEvent(QKeyEvent*)
QWidget::keyReleaseEvent(QKeyEvent*)
QWidget::leaveEvent(QEvent*)
QWidget::metric(QPaintDevice::PaintDeviceMetric) const
QWidget::minimumSizeHint() const
QWidget::moveEvent(QMoveEvent*)
QWidget::nativeEvent(QByteArray const&, void*, long*)
QWidget::paintEngine() const
QWidget::redirected(QPoint*) const
QWidget::setVisible(bool)
QWidget::sharedPainter() const
QWidget::showEvent(QShowEvent*)
QWidget::sizeHint() const
QWidget::tabletEvent(QTabletEvent*)
RC
read_Shx(std::vector<Shx, std::allocator<Shx> >&, char*)
realc(std::complex<double>)
resetGraphics()
resetGraphicsAndName()
resetName()
RGBAColour::operator!=(RGBAColour const&) const
right_1_xpm
rotate_xpm
roundto(double, double)
roundto(PRCVector3d, double)
s_hull_pro(std::vector<Shx, std::allocator<Shx> >&, std::vector<Triad, std::allocator<Triad> >&)
SerializeArrayRGBA(std::vector<unsigned char, std::allocator<unsigned char> > const&, bool, PRCbitStream&)
set_pen(unsigned int, double, double) [clone .part.3]
set_pen(unsigned int, double, double)
setExtension(QString const&, char const*)
sgn(double)
show_sl_xpm
si_d(double)
sinc(std::complex<double>)
sinc_d(double)
sinhc(std::complex<double>)
sort_prm_c(unsigned int, unsigned int, mglStack<mglPrim>&, mglPrim*)
sqrt_d(double)
sqrtc(std::complex<double>)
stCOFDOECompare(void const*, void const*)
std::__basic_file<char>::~__basic_file()
std::__basic_file<char>::is_open() const
std::__detail::_List_node_base::_M_hook(std::__detail::_List_node_base*)
std::__detail::_List_node_base::_M_transfer(std::__detail::_List_node_base*, std::__detail::_List_node_base*)
std::__detail::_List_node_base::_M_unhook()
std::__ioinit
std::__throw_bad_alloc()
std::__throw_bad_cast()
std::__throw_length_error(char const*)
std::__throw_out_of_range(char const*)
std::_Deque_base<ObjLine, std::allocator<ObjLine> >::_M_initialize_map(unsigned int)
std::_Deque_base<ObjLine, std::allocator<ObjLine> >::~_Deque_base()
std::_Deque_base<PRCBody*, std::allocator<PRCBody*> >::~_Deque_base()
std::_Deque_base<PRCConnex*, std::allocator<PRCConnex*> >::~_Deque_base()
std::_Deque_base<PRCCoordinateSystem*, std::allocator<PRCCoordinateSystem*> >::~_Deque_base()
std::_Deque_base<PRCFace*, std::allocator<PRCFace*> >::~_Deque_base()
std::_Deque_base<PRCGraphics*, std::allocator<PRCGraphics*> >::~_Deque_base()
std::_Deque_base<PRCgroup, std::allocator<PRCgroup> >::_M_initialize_map(unsigned int)
std::_Deque_base<PRCgroup, std::allocator<PRCgroup> >::~_Deque_base()
std::_Deque_base<PRCMaterial*, std::allocator<PRCMaterial*> >::~_Deque_base()
std::_Deque_base<PRCPartDefinition*, std::allocator<PRCPartDefinition*> >::~_Deque_base()
std::_Deque_base<PRCPicture*, std::allocator<PRCPicture*> >::~_Deque_base()
std::_Deque_base<PRCProductOccurrence*, std::allocator<PRCProductOccurrence*> >::~_Deque_base()
std::_Deque_base<PRCRepresentationItem*, std::allocator<PRCRepresentationItem*> >::_M_initialize_map(unsigned int)
std::_Deque_base<PRCRepresentationItem*, std::allocator<PRCRepresentationItem*> >::~_Deque_base()
std::_Deque_base<PRCRgbColor, std::allocator<PRCRgbColor> >::~_Deque_base()
std::_Deque_base<PRCShell*, std::allocator<PRCShell*> >::~_Deque_base()
std::_Deque_base<PRCSingleAttribute, std::allocator<PRCSingleAttribute> >::_M_initialize_map(unsigned int)
std::_Deque_base<PRCSingleAttribute, std::allocator<PRCSingleAttribute> >::~_Deque_base()
std::_Deque_base<PRCStyle*, std::allocator<PRCStyle*> >::~_Deque_base()
std::_Deque_base<PRCTess*, std::allocator<PRCTess*> >::~_Deque_base()
std::_Deque_base<PRCTextureDefinition*, std::allocator<PRCTextureDefinition*> >::~_Deque_base()
std::_Deque_base<PRCTopoContext*, std::allocator<PRCTopoContext*> >::~_Deque_base()
std::_Deque_base<PRCUncompressedFile*, std::allocator<PRCUncompressedFile*> >::_M_initialize_map(unsigned int)
std::_Deque_base<PRCUncompressedFile*, std::allocator<PRCUncompressedFile*> >::~_Deque_base()
std::_Deque_base<unsigned int, std::allocator<unsigned int> >::_M_initialize_map(unsigned int)
std::_Deque_base<unsigned int, std::allocator<unsigned int> >::~_Deque_base()
std::_List_base<PRCAttribute, std::allocator<PRCAttribute> >::_M_clear()
std::_List_base<PRCtessline, std::allocator<PRCtessline> >::_M_clear()
std::_Rb_tree_decrement(std::_Rb_tree_node_base*)
std::_Rb_tree_increment(std::_Rb_tree_node_base const*)
std::_Rb_tree_increment(std::_Rb_tree_node_base*)
std::_Rb_tree_insert_and_rebalance(bool, std::_Rb_tree_node_base*, std::_Rb_tree_node_base*, std::_Rb_tree_node_base&)
std::_Rb_tree<double, std::pair<double const, std::list<PRCtessline, std::allocator<PRCtessline> > >, std::_Select1st<std::pair<double const, std::list<PRCtessline, std::allocator<PRCtessline> > > >, std::less<double>, std::allocator<std::pair<double const, std::list<PRCtessline, std::allocator<PRCtessline> > > > >::_M_copy(std::_Rb_tree_node<std::pair<double const, std::list<PRCtessline, std::allocator<PRCtessline> > > > const*, std::_Rb_tree_node<std::pair<double const, std::list<PRCtessline, std::allocator<PRCtessline> > > >*)
std::_Rb_tree<double, std::pair<double const, std::list<PRCtessline, std::allocator<PRCtessline> > >, std::_Select1st<std::pair<double const, std::list<PRCtessline, std::allocator<PRCtessline> > > >, std::less<double>, std::allocator<std::pair<double const, std::list<PRCtessline, std::allocator<PRCtessline> > > > >::_M_create_node(std::pair<double const, std::list<PRCtessline, std::allocator<PRCtessline> > > const&) [clone .isra.1291]
std::_Rb_tree<double, std::pair<double const, std::list<PRCtessline, std::allocator<PRCtessline> > >, std::_Select1st<std::pair<double const, std::list<PRCtessline, std::allocator<PRCtessline> > > >, std::less<double>, std::allocator<std::pair<double const, std::list<PRCtessline, std::allocator<PRCtessline> > > > >::_M_erase(std::_Rb_tree_node<std::pair<double const, std::list<PRCtessline, std::allocator<PRCtessline> > > >*)
std::_Rb_tree<double, std::pair<double const, std::list<PRCtessline, std::allocator<PRCtessline> > >, std::_Select1st<std::pair<double const, std::list<PRCtessline, std::allocator<PRCtessline> > > >, std::less<double>, std::allocator<std::pair<double const, std::list<PRCtessline, std::allocator<PRCtessline> > > > >::_M_get_insert_hint_unique_pos(std::_Rb_tree_const_iterator<std::pair<double const, std::list<PRCtessline, std::allocator<PRCtessline> > > >, double const&)
std::_Rb_tree<double, std::pair<double const, std::list<PRCtessline, std::allocator<PRCtessline> > >, std::_Select1st<std::pair<double const, std::list<PRCtessline, std::allocator<PRCtessline> > > >, std::less<double>, std::allocator<std::pair<double const, std::list<PRCtessline, std::allocator<PRCtessline> > > > >::_M_get_insert_unique_pos(double const&)
std::_Rb_tree<long, long, std::_Identity<long>, std::less<long>, std::allocator<long> >::_M_erase(std::_Rb_tree_node<long>*)
std::_Rb_tree<long, long, std::_Identity<long>, std::less<long>, std::allocator<long> >::_M_get_insert_hint_unique_pos(std::_Rb_tree_const_iterator<long>, long const&)
std::_Rb_tree<long, long, std::_Identity<long>, std::less<long>, std::allocator<long> >::_M_get_insert_unique_pos(long const&)
std::_Rb_tree<long, long, std::_Identity<long>, std::less<long>, std::allocator<long> >::_M_insert_(std::_Rb_tree_node_base*, std::_Rb_tree_node_base*, long const&)
std::_Rb_tree<long, long, std::_Identity<long>, std::less<long>, std::allocator<long> >::_M_insert_unique(long const&)
std::_Rb_tree<mglColor, std::pair<mglColor const, unsigned int>, std::_Select1st<std::pair<mglColor const, unsigned int> >, lt_mglColor, std::allocator<std::pair<mglColor const, unsigned int> > >::_M_erase(std::_Rb_tree_node<std::pair<mglColor const, unsigned int> >*)
std::_Rb_tree<mglColor, std::pair<mglColor const, unsigned int>, std::_Select1st<std::pair<mglColor const, unsigned int> >, lt_mglColor, std::allocator<std::pair<mglColor const, unsigned int> > >::_M_insert_unique(std::pair<mglColor const, unsigned int> const&)
std::_Rb_tree<ObjUV, std::pair<ObjUV const, unsigned int>, std::_Select1st<std::pair<ObjUV const, unsigned int> >, std::less<ObjUV>, std::allocator<std::pair<ObjUV const, unsigned int> > >::_M_erase(std::_Rb_tree_node<std::pair<ObjUV const, unsigned int> >*)
std::_Rb_tree<ObjUV, std::pair<ObjUV const, unsigned int>, std::_Select1st<std::pair<ObjUV const, unsigned int> >, std::less<ObjUV>, std::allocator<std::pair<ObjUV const, unsigned int> > >::_M_insert_unique(std::pair<ObjUV const, unsigned int> const&)
std::_Rb_tree<ObjXYZ, std::pair<ObjXYZ const, unsigned int>, std::_Select1st<std::pair<ObjXYZ const, unsigned int> >, std::less<ObjXYZ>, std::allocator<std::pair<ObjXYZ const, unsigned int> > >::_M_erase(std::_Rb_tree_node<std::pair<ObjXYZ const, unsigned int> >*)
std::_Rb_tree<ObjXYZ, std::pair<ObjXYZ const, unsigned int>, std::_Select1st<std::pair<ObjXYZ const, unsigned int> >, std::less<ObjXYZ>, std::allocator<std::pair<ObjXYZ const, unsigned int> > >::_M_insert_unique(std::pair<ObjXYZ const, unsigned int> const&)
std::_Rb_tree<PRCGeneralTransformation3d, std::pair<PRCGeneralTransformation3d const, unsigned int>, std::_Select1st<std::pair<PRCGeneralTransformation3d const, unsigned int> >, std::less<PRCGeneralTransformation3d>, std::allocator<std::pair<PRCGeneralTransformation3d const, unsigned int> > >::_M_erase(std::_Rb_tree_node<std::pair<PRCGeneralTransformation3d const, unsigned int> >*)
std::_Rb_tree<PRCGeneralTransformation3d, std::pair<PRCGeneralTransformation3d const, unsigned int>, std::_Select1st<std::pair<PRCGeneralTransformation3d const, unsigned int> >, std::less<PRCGeneralTransformation3d>, std::allocator<std::pair<PRCGeneralTransformation3d const, unsigned int> > >::_M_insert_unique(std::pair<PRCGeneralTransformation3d const, unsigned int> const&)
std::_Rb_tree<PRCmaterial, std::pair<PRCmaterial const, unsigned int>, std::_Select1st<std::pair<PRCmaterial const, unsigned int> >, std::less<PRCmaterial>, std::allocator<std::pair<PRCmaterial const, unsigned int> > >::_M_erase(std::_Rb_tree_node<std::pair<PRCmaterial const, unsigned int> >*)
std::_Rb_tree<PRCmaterial, std::pair<PRCmaterial const, unsigned int>, std::_Select1st<std::pair<PRCmaterial const, unsigned int> >, std::less<PRCmaterial>, std::allocator<std::pair<PRCmaterial const, unsigned int> > >::_M_insert_unique(std::pair<PRCmaterial const, unsigned int> const&)
std::_Rb_tree<PRCMaterialGeneric*, std::pair<PRCMaterialGeneric* const, unsigned int>, std::_Select1st<std::pair<PRCMaterialGeneric* const, unsigned int> >, PRCMaterialGenericCmp, std::allocator<std::pair<PRCMaterialGeneric* const, unsigned int> > >::_M_erase(std::_Rb_tree_node<std::pair<PRCMaterialGeneric* const, unsigned int> >*)
std::_Rb_tree<PRCMaterialGeneric*, std::pair<PRCMaterialGeneric* const, unsigned int>, std::_Select1st<std::pair<PRCMaterialGeneric* const, unsigned int> >, PRCMaterialGenericCmp, std::allocator<std::pair<PRCMaterialGeneric* const, unsigned int> > >::_M_insert_unique(std::pair<PRCMaterialGeneric* const, unsigned int> const&)
std::_Rb_tree<PRCPicture*, std::pair<PRCPicture* const, unsigned int>, std::_Select1st<std::pair<PRCPicture* const, unsigned int> >, PRCPictureCmp, std::allocator<std::pair<PRCPicture* const, unsigned int> > >::_M_erase(std::_Rb_tree_node<std::pair<PRCPicture* const, unsigned int> >*)
std::_Rb_tree<PRCPicture*, std::pair<PRCPicture* const, unsigned int>, std::_Select1st<std::pair<PRCPicture* const, unsigned int> >, PRCPictureCmp, std::allocator<std::pair<PRCPicture* const, unsigned int> > >::_M_insert_unique(std::pair<PRCPicture* const, unsigned int> const&)
std::_Rb_tree<PRCRgbColor, std::pair<PRCRgbColor const, unsigned int>, std::_Select1st<std::pair<PRCRgbColor const, unsigned int> >, std::less<PRCRgbColor>, std::allocator<std::pair<PRCRgbColor const, unsigned int> > >::_M_erase(std::_Rb_tree_node<std::pair<PRCRgbColor const, unsigned int> >*)
std::_Rb_tree<PRCRgbColor, std::pair<PRCRgbColor const, unsigned int>, std::_Select1st<std::pair<PRCRgbColor const, unsigned int> >, std::less<PRCRgbColor>, std::allocator<std::pair<PRCRgbColor const, unsigned int> > >::_M_insert_unique(std::pair<PRCRgbColor const, unsigned int> const&)
std::_Rb_tree<PRCStyle*, std::pair<PRCStyle* const, unsigned int>, std::_Select1st<std::pair<PRCStyle* const, unsigned int> >, PRCStyleCmp, std::allocator<std::pair<PRCStyle* const, unsigned int> > >::_M_erase(std::_Rb_tree_node<std::pair<PRCStyle* const, unsigned int> >*)
std::_Rb_tree<PRCStyle*, std::pair<PRCStyle* const, unsigned int>, std::_Select1st<std::pair<PRCStyle* const, unsigned int> >, PRCStyleCmp, std::allocator<std::pair<PRCStyle* const, unsigned int> > >::_M_insert_unique(std::pair<PRCStyle* const, unsigned int> const&)
std::_Rb_tree<PRCTextureApplication*, std::pair<PRCTextureApplication* const, unsigned int>, std::_Select1st<std::pair<PRCTextureApplication* const, unsigned int> >, PRCTextureApplicationCmp, std::allocator<std::pair<PRCTextureApplication* const, unsigned int> > >::_M_erase(std::_Rb_tree_node<std::pair<PRCTextureApplication* const, unsigned int> >*)
std::_Rb_tree<PRCTextureApplication*, std::pair<PRCTextureApplication* const, unsigned int>, std::_Select1st<std::pair<PRCTextureApplication* const, unsigned int> >, PRCTextureApplicationCmp, std::allocator<std::pair<PRCTextureApplication* const, unsigned int> > >::_M_insert_unique(std::pair<PRCTextureApplication* const, unsigned int> const&)
std::_Rb_tree<PRCTextureDefinition*, std::pair<PRCTextureDefinition* const, unsigned int>, std::_Select1st<std::pair<PRCTextureDefinition* const, unsigned int> >, PRCTextureDefinitionCmp, std::allocator<std::pair<PRCTextureDefinition* const, unsigned int> > >::_M_erase(std::_Rb_tree_node<std::pair<PRCTextureDefinition* const, unsigned int> >*)
std::_Rb_tree<PRCTextureDefinition*, std::pair<PRCTextureDefinition* const, unsigned int>, std::_Select1st<std::pair<PRCTextureDefinition* const, unsigned int> >, PRCTextureDefinitionCmp, std::allocator<std::pair<PRCTextureDefinition* const, unsigned int> > >::_M_insert_unique(std::pair<PRCTextureDefinition* const, unsigned int> const&)
std::_Rb_tree<PRCUncompressedFile*, std::pair<PRCUncompressedFile* const, unsigned int>, std::_Select1st<std::pair<PRCUncompressedFile* const, unsigned int> >, PRCUncompressedFileCmp, std::allocator<std::pair<PRCUncompressedFile* const, unsigned int> > >::_M_erase(std::_Rb_tree_node<std::pair<PRCUncompressedFile* const, unsigned int> >*)
std::_Rb_tree<PRCUncompressedFile*, std::pair<PRCUncompressedFile* const, unsigned int>, std::_Select1st<std::pair<PRCUncompressedFile* const, unsigned int> >, PRCUncompressedFileCmp, std::allocator<std::pair<PRCUncompressedFile* const, unsigned int> > >::_M_get_insert_unique_pos(PRCUncompressedFile* const&)
std::_Rb_tree<PRCUncompressedFile*, std::pair<PRCUncompressedFile* const, unsigned int>, std::_Select1st<std::pair<PRCUncompressedFile* const, unsigned int> >, PRCUncompressedFileCmp, std::allocator<std::pair<PRCUncompressedFile* const, unsigned int> > >::_M_insert_unique(std::pair<PRCUncompressedFile* const, unsigned int> const&)
std::_Rb_tree<PRCVector2d, std::pair<PRCVector2d const, unsigned int>, std::_Select1st<std::pair<PRCVector2d const, unsigned int> >, std::less<PRCVector2d>, std::allocator<std::pair<PRCVector2d const, unsigned int> > >::_M_erase(std::_Rb_tree_node<std::pair<PRCVector2d const, unsigned int> >*)
std::_Rb_tree<PRCVector2d, std::pair<PRCVector2d const, unsigned int>, std::_Select1st<std::pair<PRCVector2d const, unsigned int> >, std::less<PRCVector2d>, std::allocator<std::pair<PRCVector2d const, unsigned int> > >::_M_insert_unique(std::pair<PRCVector2d const, unsigned int> const&)
std::_Rb_tree<PRCVector3d, std::pair<PRCVector3d const, unsigned int>, std::_Select1st<std::pair<PRCVector3d const, unsigned int> >, std::less<PRCVector3d>, std::allocator<std::pair<PRCVector3d const, unsigned int> > >::_M_erase(std::_Rb_tree_node<std::pair<PRCVector3d const, unsigned int> >*)
std::_Rb_tree<PRCVector3d, std::pair<PRCVector3d const, unsigned int>, std::_Select1st<std::pair<PRCVector3d const, unsigned int> >, std::less<PRCVector3d>, std::allocator<std::pair<PRCVector3d const, unsigned int> > >::_M_insert_unique(std::pair<PRCVector3d const, unsigned int> const&)
std::_Rb_tree<PRCVector3d, std::pair<PRCVector3d const, unsigned int>, std::_Select1st<std::pair<PRCVector3d const, unsigned int> >, std::less<PRCVector3d>, std::allocator<std::pair<PRCVector3d const, unsigned int> > >::find(PRCVector3d const&)
std::_Rb_tree<RGBAColour, std::pair<RGBAColour const, unsigned int>, std::_Select1st<std::pair<RGBAColour const, unsigned int> >, std::less<RGBAColour>, std::allocator<std::pair<RGBAColour const, unsigned int> > >::_M_erase(std::_Rb_tree_node<std::pair<RGBAColour const, unsigned int> >*)
std::_Rb_tree<RGBAColour, std::pair<RGBAColour const, unsigned int>, std::_Select1st<std::pair<RGBAColour const, unsigned int> >, std::less<RGBAColour>, std::allocator<std::pair<RGBAColour const, unsigned int> > >::_M_insert_unique(std::pair<RGBAColour const, unsigned int> const&)
std::_Rb_tree<RGBAColourWidth, std::pair<RGBAColourWidth const, unsigned int>, std::_Select1st<std::pair<RGBAColourWidth const, unsigned int> >, std::less<RGBAColourWidth>, std::allocator<std::pair<RGBAColourWidth const, unsigned int> > >::_M_erase(std::_Rb_tree_node<std::pair<RGBAColourWidth const, unsigned int> >*)
std::_Rb_tree<RGBAColourWidth, std::pair<RGBAColourWidth const, unsigned int>, std::_Select1st<std::pair<RGBAColourWidth const, unsigned int> >, std::less<RGBAColourWidth>, std::allocator<std::pair<RGBAColourWidth const, unsigned int> > >::_M_insert_unique(std::pair<RGBAColourWidth const, unsigned int> const&)
std::_Rb_tree<unsigned int, std::pair<unsigned int const, std::deque<ObjLine, std::allocator<ObjLine> > >, std::_Select1st<std::pair<unsigned int const, std::deque<ObjLine, std::allocator<ObjLine> > > >, std::less<unsigned int>, std::allocator<std::pair<unsigned int const, std::deque<ObjLine, std::allocator<ObjLine> > > > >::_M_erase(std::_Rb_tree_node<std::pair<unsigned int const, std::deque<ObjLine, std::allocator<ObjLine> > > >*)
std::_Rb_tree<unsigned int, std::pair<unsigned int const, std::deque<ObjLine, std::allocator<ObjLine> > >, std::_Select1st<std::pair<unsigned int const, std::deque<ObjLine, std::allocator<ObjLine> > > >, std::less<unsigned int>, std::allocator<std::pair<unsigned int const, std::deque<ObjLine, std::allocator<ObjLine> > > > >::_M_get_insert_hint_unique_pos(std::_Rb_tree_const_iterator<std::pair<unsigned int const, std::deque<ObjLine, std::allocator<ObjLine> > > >, unsigned int const&)
std::_Rb_tree<unsigned int, std::pair<unsigned int const, std::deque<ObjLine, std::allocator<ObjLine> > >, std::_Select1st<std::pair<unsigned int const, std::deque<ObjLine, std::allocator<ObjLine> > > >, std::less<unsigned int>, std::allocator<std::pair<unsigned int const, std::deque<ObjLine, std::allocator<ObjLine> > > > >::_M_get_insert_unique_pos(unsigned int const&)
std::_Rb_tree<unsigned int, std::pair<unsigned int const, std::deque<ObjLine, std::allocator<ObjLine> > >, std::_Select1st<std::pair<unsigned int const, std::deque<ObjLine, std::allocator<ObjLine> > > >, std::less<unsigned int>, std::allocator<std::pair<unsigned int const, std::deque<ObjLine, std::allocator<ObjLine> > > > >::_M_insert_unique_(std::_Rb_tree_const_iterator<std::pair<unsigned int const, std::deque<ObjLine, std::allocator<ObjLine> > > >, std::pair<unsigned int const, std::deque<ObjLine, std::allocator<ObjLine> > > const&)
std::_Rb_tree<unsigned int, std::pair<unsigned int const, std::deque<unsigned int, std::allocator<unsigned int> > >, std::_Select1st<std::pair<unsigned int const, std::deque<unsigned int, std::allocator<unsigned int> > > >, std::less<unsigned int>, std::allocator<std::pair<unsigned int const, std::deque<unsigned int, std::allocator<unsigned int> > > > >::_M_erase(std::_Rb_tree_node<std::pair<unsigned int const, std::deque<unsigned int, std::allocator<unsigned int> > > >*)
std::_Rb_tree<unsigned int, std::pair<unsigned int const, std::deque<unsigned int, std::allocator<unsigned int> > >, std::_Select1st<std::pair<unsigned int const, std::deque<unsigned int, std::allocator<unsigned int> > > >, std::less<unsigned int>, std::allocator<std::pair<unsigned int const, std::deque<unsigned int, std::allocator<unsigned int> > > > >::_M_get_insert_hint_unique_pos(std::_Rb_tree_const_iterator<std::pair<unsigned int const, std::deque<unsigned int, std::allocator<unsigned int> > > >, unsigned int const&)
std::_Rb_tree<unsigned int, std::pair<unsigned int const, std::deque<unsigned int, std::allocator<unsigned int> > >, std::_Select1st<std::pair<unsigned int const, std::deque<unsigned int, std::allocator<unsigned int> > > >, std::less<unsigned int>, std::allocator<std::pair<unsigned int const, std::deque<unsigned int, std::allocator<unsigned int> > > > >::_M_get_insert_unique_pos(unsigned int const&)
std::_Rb_tree<unsigned int, std::pair<unsigned int const, std::deque<unsigned int, std::allocator<unsigned int> > >, std::_Select1st<std::pair<unsigned int const, std::deque<unsigned int, std::allocator<unsigned int> > > >, std::less<unsigned int>, std::allocator<std::pair<unsigned int const, std::deque<unsigned int, std::allocator<unsigned int> > > > >::_M_insert_unique_(std::_Rb_tree_const_iterator<std::pair<unsigned int const, std::deque<unsigned int, std::allocator<unsigned int> > > >, std::pair<unsigned int const, std::deque<unsigned int, std::allocator<unsigned int> > > const&)
std::_Rb_tree<unsigned int, std::pair<unsigned int const, std::vector<PRCVector3d, std::allocator<PRCVector3d> > >, std::_Select1st<std::pair<unsigned int const, std::vector<PRCVector3d, std::allocator<PRCVector3d> > > >, std::less<unsigned int>, std::allocator<std::pair<unsigned int const, std::vector<PRCVector3d, std::allocator<PRCVector3d> > > > >::_M_copy(std::_Rb_tree_node<std::pair<unsigned int const, std::vector<PRCVector3d, std::allocator<PRCVector3d> > > > const*, std::_Rb_tree_node<std::pair<unsigned int const, std::vector<PRCVector3d, std::allocator<PRCVector3d> > > >*)
std::_Rb_tree<unsigned int, std::pair<unsigned int const, std::vector<PRCVector3d, std::allocator<PRCVector3d> > >, std::_Select1st<std::pair<unsigned int const, std::vector<PRCVector3d, std::allocator<PRCVector3d> > > >, std::less<unsigned int>, std::allocator<std::pair<unsigned int const, std::vector<PRCVector3d, std::allocator<PRCVector3d> > > > >::_M_create_node(std::pair<unsigned int const, std::vector<PRCVector3d, std::allocator<PRCVector3d> > > const&) [clone .isra.1282]
std::_Rb_tree<unsigned int, std::pair<unsigned int const, std::vector<PRCVector3d, std::allocator<PRCVector3d> > >, std::_Select1st<std::pair<unsigned int const, std::vector<PRCVector3d, std::allocator<PRCVector3d> > > >, std::less<unsigned int>, std::allocator<std::pair<unsigned int const, std::vector<PRCVector3d, std::allocator<PRCVector3d> > > > >::_M_erase(std::_Rb_tree_node<std::pair<unsigned int const, std::vector<PRCVector3d, std::allocator<PRCVector3d> > > >*)
std::_Rb_tree<unsigned int, std::pair<unsigned int const, std::vector<PRCVector3d, std::allocator<PRCVector3d> > >, std::_Select1st<std::pair<unsigned int const, std::vector<PRCVector3d, std::allocator<PRCVector3d> > > >, std::less<unsigned int>, std::allocator<std::pair<unsigned int const, std::vector<PRCVector3d, std::allocator<PRCVector3d> > > > >::_M_get_insert_hint_unique_pos(std::_Rb_tree_const_iterator<std::pair<unsigned int const, std::vector<PRCVector3d, std::allocator<PRCVector3d> > > >, unsigned int const&)
std::_Rb_tree<unsigned int, std::pair<unsigned int const, std::vector<PRCVector3d, std::allocator<PRCVector3d> > >, std::_Select1st<std::pair<unsigned int const, std::vector<PRCVector3d, std::allocator<PRCVector3d> > > >, std::less<unsigned int>, std::allocator<std::pair<unsigned int const, std::vector<PRCVector3d, std::allocator<PRCVector3d> > > > >::_M_get_insert_unique_pos(unsigned int const&)
std::basic_filebuf<char, std::char_traits<char> >::~basic_filebuf()
std::basic_filebuf<char, std::char_traits<char> >::basic_filebuf()
std::basic_filebuf<char, std::char_traits<char> >::close()
std::basic_filebuf<char, std::char_traits<char> >::open(char const*, std::_Ios_Openmode)
std::basic_ifstream<char, std::char_traits<char> >::~basic_ifstream()
std::basic_ios<char, std::char_traits<char> >::clear(std::_Ios_Iostate)
std::basic_ios<char, std::char_traits<char> >::init(std::basic_streambuf<char, std::char_traits<char> >*)
std::basic_iostream<char, std::char_traits<char> >::~basic_iostream()
std::basic_istream<char, std::char_traits<char> >& std::getline<char, std::char_traits<char>, std::allocator<char> >(std::basic_istream<char, std::char_traits<char> >&, std::basic_string<char, std::char_traits<char>, std::allocator<char> >&, char)
std::basic_ofstream<char, std::char_traits<char> >::~basic_ofstream()
std::basic_ostream<char, std::char_traits<char> >& std::__ostream_insert<char, std::char_traits<char> >(std::basic_ostream<char, std::char_traits<char> >&, char const*, int)
std::basic_ostream<char, std::char_traits<char> >& std::basic_ostream<char, std::char_traits<char> >::_M_insert<double>(double)
std::basic_ostream<char, std::char_traits<char> >& std::basic_ostream<char, std::char_traits<char> >::_M_insert<long>(long)
std::basic_ostream<char, std::char_traits<char> >& std::basic_ostream<char, std::char_traits<char> >::_M_insert<unsigned long>(unsigned long)
std::basic_ostream<char, std::char_traits<char> >& std::endl<char, std::char_traits<char> >(std::basic_ostream<char, std::char_traits<char> >&)
std::basic_ostream<char, std::char_traits<char> >& std::operator<< <std::char_traits<char> >(std::basic_ostream<char, std::char_traits<char> >&, char const*) [clone .part.1]
std::basic_ostream<char, std::char_traits<char> >& std::operator<< <std::char_traits<char> >(std::basic_ostream<char, std::char_traits<char> >&, char const*) [clone .part.3]
std::basic_ostream<char, std::char_traits<char> >& std::operator<< <std::char_traits<char> >(std::basic_ostream<char, std::char_traits<char> >&, char const*) [clone .part.8]
std::basic_ostream<char, std::char_traits<char> >& std::operator<< <std::char_traits<char> >(std::basic_ostream<char, std::char_traits<char> >&, char const*)
std::basic_ostream<char, std::char_traits<char> >::flush()
std::basic_ostream<char, std::char_traits<char> >::put(char)
std::basic_ostream<char, std::char_traits<char> >::write(char const*, int)
std::basic_string<char, std::char_traits<char>, std::allocator<char> > std::operator+<char, std::char_traits<char>, std::allocator<char> >(std::basic_string<char, std::char_traits<char>, std::allocator<char> > const&, char const*)
std::basic_string<char, std::char_traits<char>, std::allocator<char> > std::operator+<char, std::char_traits<char>, std::allocator<char> >(std::basic_string<char, std::char_traits<char>, std::allocator<char> > const&, std::basic_string<char, std::char_traits<char>, std::allocator<char> > const&)
std::basic_string<char, std::char_traits<char>, std::allocator<char> >& std::basic_string<char, std::char_traits<char>, std::allocator<char> >::assign<__gnu_cxx::__normal_iterator<wchar_t*, std::basic_string<wchar_t, std::char_traits<wchar_t>, std::allocator<wchar_t> > > >(__gnu_cxx::__normal_iterator<wchar_t*, std::basic_string<wchar_t, std::char_traits<wchar_t>, std::allocator<wchar_t> > >, __gnu_cxx::__normal_iterator<wchar_t*, std::basic_string<wchar_t, std::char_traits<wchar_t>, std::allocator<wchar_t> > >)
std::basic_string<char, std::char_traits<char>, std::allocator<char> >::_M_leak_hard()
std::basic_string<char, std::char_traits<char>, std::allocator<char> >::_M_mutate(unsigned int, unsigned int, unsigned int)
std::basic_string<char, std::char_traits<char>, std::allocator<char> >::_M_replace_safe(unsigned int, unsigned int, char const*, unsigned int)
std::basic_string<char, std::char_traits<char>, std::allocator<char> >::_Rep::_M_destroy(std::allocator<char> const&)
std::basic_string<char, std::char_traits<char>, std::allocator<char> >::_Rep::_M_dispose(std::allocator<char> const&)
std::basic_string<char, std::char_traits<char>, std::allocator<char> >::_Rep::_S_create(unsigned int, unsigned int, std::allocator<char> const&)
std::basic_string<char, std::char_traits<char>, std::allocator<char> >::_Rep::_S_empty_rep_storage
std::basic_string<char, std::char_traits<char>, std::allocator<char> >::append(char const*, unsigned int)
std::basic_string<char, std::char_traits<char>, std::allocator<char> >::append(std::basic_string<char, std::char_traits<char>, std::allocator<char> > const&)
std::basic_string<char, std::char_traits<char>, std::allocator<char> >::assign(char const*)
std::basic_string<char, std::char_traits<char>, std::allocator<char> >::assign(char const*, unsigned int)
std::basic_string<char, std::char_traits<char>, std::allocator<char> >::assign(std::basic_string<char, std::char_traits<char>, std::allocator<char> > const&)
std::basic_string<char, std::char_traits<char>, std::allocator<char> >::basic_string(char const*, std::allocator<char> const&)
std::basic_string<char, std::char_traits<char>, std::allocator<char> >::basic_string(std::basic_string<char, std::char_traits<char>, std::allocator<char> > const&)
std::basic_string<char, std::char_traits<char>, std::allocator<char> >::compare(char const*) const
std::basic_string<char, std::char_traits<char>, std::allocator<char> >::compare(std::basic_string<char, std::char_traits<char>, std::allocator<char> > const&) const
std::basic_string<char, std::char_traits<char>, std::allocator<char> >::find(char const*, unsigned int, unsigned int) const
std::basic_string<char, std::char_traits<char>, std::allocator<char> >::push_back(char)
std::basic_string<char, std::char_traits<char>, std::allocator<char> >::reserve(unsigned int)
std::basic_string<wchar_t, std::char_traits<wchar_t>, std::allocator<wchar_t> > std::operator+<wchar_t, std::char_traits<wchar_t>, std::allocator<wchar_t> >(wchar_t const*, std::basic_string<wchar_t, std::char_traits<wchar_t>, std::allocator<wchar_t> > const&)
std::basic_string<wchar_t, std::char_traits<wchar_t>, std::allocator<wchar_t> >::_M_leak_hard()
std::basic_string<wchar_t, std::char_traits<wchar_t>, std::allocator<wchar_t> >::_M_mutate(unsigned int, unsigned int, unsigned int)
std::basic_string<wchar_t, std::char_traits<wchar_t>, std::allocator<wchar_t> >::_M_replace_aux(unsigned int, unsigned int, unsigned int, wchar_t)
std::basic_string<wchar_t, std::char_traits<wchar_t>, std::allocator<wchar_t> >::_Rep::_M_destroy(std::allocator<wchar_t> const&)
std::basic_string<wchar_t, std::char_traits<wchar_t>, std::allocator<wchar_t> >::_Rep::_M_dispose(std::allocator<wchar_t> const&)
std::basic_string<wchar_t, std::char_traits<wchar_t>, std::allocator<wchar_t> >::_Rep::_S_empty_rep_storage
std::basic_string<wchar_t, std::char_traits<wchar_t>, std::allocator<wchar_t> >::append(std::basic_string<wchar_t, std::char_traits<wchar_t>, std::allocator<wchar_t> > const&)
std::basic_string<wchar_t, std::char_traits<wchar_t>, std::allocator<wchar_t> >::append(unsigned int, wchar_t)
std::basic_string<wchar_t, std::char_traits<wchar_t>, std::allocator<wchar_t> >::append(wchar_t const*, unsigned int)
std::basic_string<wchar_t, std::char_traits<wchar_t>, std::allocator<wchar_t> >::assign(std::basic_string<wchar_t, std::char_traits<wchar_t>, std::allocator<wchar_t> > const&)
std::basic_string<wchar_t, std::char_traits<wchar_t>, std::allocator<wchar_t> >::assign(wchar_t const*)
std::basic_string<wchar_t, std::char_traits<wchar_t>, std::allocator<wchar_t> >::assign(wchar_t const*, unsigned int)
std::basic_string<wchar_t, std::char_traits<wchar_t>, std::allocator<wchar_t> >::basic_string(std::basic_string<wchar_t, std::char_traits<wchar_t>, std::allocator<wchar_t> > const&)
std::basic_string<wchar_t, std::char_traits<wchar_t>, std::allocator<wchar_t> >::basic_string(std::basic_string<wchar_t, std::char_traits<wchar_t>, std::allocator<wchar_t> > const&, unsigned int, unsigned int)
std::basic_string<wchar_t, std::char_traits<wchar_t>, std::allocator<wchar_t> >::basic_string(wchar_t const*, std::allocator<wchar_t> const&)
std::basic_string<wchar_t, std::char_traits<wchar_t>, std::allocator<wchar_t> >::basic_string(wchar_t const*, unsigned int, std::allocator<wchar_t> const&)
std::basic_string<wchar_t, std::char_traits<wchar_t>, std::allocator<wchar_t> >::compare(unsigned int, unsigned int, wchar_t const*) const
std::basic_string<wchar_t, std::char_traits<wchar_t>, std::allocator<wchar_t> >::compare(wchar_t const*) const
std::basic_string<wchar_t, std::char_traits<wchar_t>, std::allocator<wchar_t> >::end()
std::basic_string<wchar_t, std::char_traits<wchar_t>, std::allocator<wchar_t> >::find(wchar_t, unsigned int) const
std::basic_string<wchar_t, std::char_traits<wchar_t>, std::allocator<wchar_t> >::find_first_of(wchar_t const*, unsigned int, unsigned int) const
std::basic_string<wchar_t, std::char_traits<wchar_t>, std::allocator<wchar_t> >::push_back(wchar_t)
std::basic_string<wchar_t, std::char_traits<wchar_t>, std::allocator<wchar_t> >::replace(unsigned int, unsigned int, wchar_t const*, unsigned int)
std::basic_string<wchar_t, std::char_traits<wchar_t>, std::allocator<wchar_t> >::reserve(unsigned int)
std::basic_string<wchar_t, std::char_traits<wchar_t>, std::allocator<wchar_t> >::substr(unsigned int, unsigned int) const
std::basic_stringbuf<char, std::char_traits<char>, std::allocator<char> >::~basic_stringbuf()
std::basic_stringbuf<char, std::char_traits<char>, std::allocator<char> >::str() const
std::basic_stringstream<char, std::char_traits<char>, std::allocator<char> >::~basic_stringstream()
std::cerr
std::complex<double> mgl_spline3st<std::complex<double> >(std::complex<double> const*, long, double)
std::complex<double> mgl_spline3t<std::complex<double> >(std::complex<double> const*, long, double, std::complex<double>&)
std::complex<double> mglLineart<std::complex<double> >(std::complex<double> const*, long, long, long, double, double, double)
std::complex<double> mglSpline1st<std::complex<double> >(std::complex<double> const*, long, double)
std::complex<double> mglSpline1t<std::complex<double> >(std::complex<double> const*, long, double, std::complex<double>*)
std::complex<double> mglSpline3st<std::complex<double> >(std::complex<double> const*, long, long, long, double, double, double)
std::complex<double> mglSpline3t<std::complex<double> >(std::complex<double> const*, long, long, long, double, double, double, std::complex<double>*, std::complex<double>*, std::complex<double>*)
std::complex<double> std::__complex_pow_unsigned<double>(std::complex<double>, unsigned int)
std::complex<double> std::__complex_sqrt<double>(std::complex<double> const&)
std::ctype<char>::_M_widen_init() const
std::deque<ObjLine, std::allocator<ObjLine> >::_M_push_back_aux(ObjLine const&)
std::deque<ObjTriangle, std::allocator<ObjTriangle> >::_M_push_back_aux(ObjTriangle const&)
std::deque<ObjTriangle, std::allocator<ObjTriangle> >::push_back(ObjTriangle const&)
std::deque<PRCBody*, std::allocator<PRCBody*> >::_M_reallocate_map(unsigned int, bool)
std::deque<PRCCompressedFace*, std::allocator<PRCCompressedFace*> >::push_back(PRCCompressedFace* const&)
std::deque<PRCCoordinateSystem*, std::allocator<PRCCoordinateSystem*> >::_M_push_back_aux(PRCCoordinateSystem* const&)
std::deque<PRCGraphics*, std::allocator<PRCGraphics*> >::_M_reallocate_map(unsigned int, bool)
std::deque<PRCgroup, std::allocator<PRCgroup> >::_M_push_back_aux(PRCgroup const&)
std::deque<PRCgroup, std::allocator<PRCgroup> >::~deque()
std::deque<PRCMaterial*, std::allocator<PRCMaterial*> >::_M_reallocate_map(unsigned int, bool)
std::deque<PRCPicture*, std::allocator<PRCPicture*> >::_M_push_back_aux(PRCPicture* const&)
std::deque<PRCRgbColor, std::allocator<PRCRgbColor> >::_M_push_back_aux(PRCRgbColor const&)
std::deque<PRCSingleAttribute, std::allocator<PRCSingleAttribute> >::_M_destroy_data_aux(std::_Deque_iterator<PRCSingleAttribute, PRCSingleAttribute&, PRCSingleAttribute*>, std::_Deque_iterator<PRCSingleAttribute, PRCSingleAttribute&, PRCSingleAttribute*>)
std::deque<PRCSingleAttribute, std::allocator<PRCSingleAttribute> >::_M_push_back_aux(PRCSingleAttribute const&)
std::deque<PRCStyle*, std::allocator<PRCStyle*> >::_M_push_back_aux(PRCStyle* const&)
std::deque<PRCTess*, std::allocator<PRCTess*> >::_M_push_back_aux(PRCTess* const&)
std::deque<PRCTextureDefinition*, std::allocator<PRCTextureDefinition*> >::_M_push_back_aux(PRCTextureDefinition* const&)
std::deque<PRCTopoContext*, std::allocator<PRCTopoContext*> >::_M_push_back_aux(PRCTopoContext* const&)
std::deque<PRCUncompressedFile*, std::allocator<PRCUncompressedFile*> >::_M_push_back_aux(PRCUncompressedFile* const&)
std::ios_base::~ios_base()
std::ios_base::Init::~Init()
std::ios_base::Init::Init()
std::ios_base::ios_base()
std::list<mglPoint, std::allocator<mglPoint> >::operator=(std::list<mglPoint, std::allocator<mglPoint> > const&)
std::locale::~locale()
std::locale::locale()
std::map<double, std::list<PRCtessline, std::allocator<PRCtessline> >, std::less<double>, std::allocator<std::pair<double const, std::list<PRCtessline, std::allocator<PRCtessline> > > > >::operator[](double const&)
std::map<unsigned int, std::deque<unsigned int, std::allocator<unsigned int> >, std::less<unsigned int>, std::allocator<std::pair<unsigned int const, std::deque<unsigned int, std::allocator<unsigned int> > > > >::operator[](unsigned int const&)
std::terminate()
std::vector<char const*, std::allocator<char const*> >::_M_insert_aux(__gnu_cxx::__normal_iterator<char const**, std::vector<char const*, std::allocator<char const*> > >, char const* const&)
std::vector<char*, std::allocator<char*> >::_M_insert_aux(__gnu_cxx::__normal_iterator<char**, std::vector<char*, std::allocator<char*> > >, char* const&)
std::vector<double, std::allocator<double> >::_M_fill_insert(__gnu_cxx::__normal_iterator<double*, std::vector<double, std::allocator<double> > >, unsigned int, double const&)
std::vector<double, std::allocator<double> >::_M_insert_aux(__gnu_cxx::__normal_iterator<double*, std::vector<double, std::allocator<double> > >, double const&)
std::vector<double, std::allocator<double> >::operator=(std::vector<double, std::allocator<double> > const&)
std::vector<double, std::allocator<double> >::push_back(double const&)
std::vector<double, std::allocator<double> >::reserve(unsigned int)
std::vector<Dupex, std::allocator<Dupex> >::_M_insert_aux(__gnu_cxx::__normal_iterator<Dupex*, std::vector<Dupex, std::allocator<Dupex> > >, Dupex const&)
std::vector<long, std::allocator<long> >::_M_fill_insert(__gnu_cxx::__normal_iterator<long*, std::vector<long, std::allocator<long> > >, unsigned int, long const&)
std::vector<long, std::allocator<long> >::_M_insert_aux(__gnu_cxx::__normal_iterator<long*, std::vector<long, std::allocator<long> > >, long const&)
std::vector<long, std::allocator<long> >::insert(__gnu_cxx::__normal_iterator<long*, std::vector<long, std::allocator<long> > >, long const&)
std::vector<long, std::allocator<long> >::operator=(std::vector<long, std::allocator<long> > const&)
std::vector<long, std::allocator<long> >::push_back(long const&)
std::vector<lt__handle*, std::allocator<lt__handle*> >::_M_insert_aux(__gnu_cxx::__normal_iterator<lt__handle**, std::vector<lt__handle*, std::allocator<lt__handle*> > >, lt__handle* const&)
std::vector<mglBlock, std::allocator<mglBlock> >::_M_fill_insert(__gnu_cxx::__normal_iterator<mglBlock*, std::vector<mglBlock, std::allocator<mglBlock> > >, unsigned int, mglBlock const&)
std::vector<mglBlock, std::allocator<mglBlock> >::_M_insert_aux(__gnu_cxx::__normal_iterator<mglBlock*, std::vector<mglBlock, std::allocator<mglBlock> > >, mglBlock const&)
std::vector<mglBlock, std::allocator<mglBlock> >::operator=(std::vector<mglBlock, std::allocator<mglBlock> > const&)
std::vector<mglDataA*, std::allocator<mglDataA*> >::_M_insert_aux(__gnu_cxx::__normal_iterator<mglDataA**, std::vector<mglDataA*, std::allocator<mglDataA*> > >, mglDataA* const&)
std::vector<mglDrawDat, std::allocator<mglDrawDat> >::_M_insert_aux(__gnu_cxx::__normal_iterator<mglDrawDat*, std::vector<mglDrawDat, std::allocator<mglDrawDat> > >, mglDrawDat const&)
std::vector<mglDrawDat, std::allocator<mglDrawDat> >::erase(__gnu_cxx::__normal_iterator<mglDrawDat*, std::vector<mglDrawDat, std::allocator<mglDrawDat> > >)
std::vector<mglFnStack, std::allocator<mglFnStack> >::_M_insert_aux(__gnu_cxx::__normal_iterator<mglFnStack*, std::vector<mglFnStack, std::allocator<mglFnStack> > >, mglFnStack const&)
std::vector<mglFnStack, std::allocator<mglFnStack> >::~vector()
std::vector<mglFunc, std::allocator<mglFunc> >::_M_insert_aux(__gnu_cxx::__normal_iterator<mglFunc*, std::vector<mglFunc, std::allocator<mglFunc> > >, mglFunc const&)
std::vector<mglFunc, std::allocator<mglFunc> >::~vector()
std::vector<mglFunc, std::allocator<mglFunc> >::clear()
std::vector<mglGlyph, std::allocator<mglGlyph> >::_M_fill_insert(__gnu_cxx::__normal_iterator<mglGlyph*, std::vector<mglGlyph, std::allocator<mglGlyph> > >, unsigned int, mglGlyph const&)
std::vector<mglGlyph, std::allocator<mglGlyph> >::_M_insert_aux(__gnu_cxx::__normal_iterator<mglGlyph*, std::vector<mglGlyph, std::allocator<mglGlyph> > >, mglGlyph const&)
std::vector<mglGlyph, std::allocator<mglGlyph> >::~vector()
std::vector<mglGlyph, std::allocator<mglGlyph> >::operator=(std::vector<mglGlyph, std::allocator<mglGlyph> > const&)
std::vector<mglGlyph, std::allocator<mglGlyph> >::reserve(unsigned int)
std::vector<mglGlyphDescr, std::allocator<mglGlyphDescr> >::_M_fill_insert(__gnu_cxx::__normal_iterator<mglGlyphDescr*, std::vector<mglGlyphDescr, std::allocator<mglGlyphDescr> > >, unsigned int, mglGlyphDescr const&)
std::vector<mglGlyphDescr, std::allocator<mglGlyphDescr> >::_M_insert_aux(__gnu_cxx::__normal_iterator<mglGlyphDescr*, std::vector<mglGlyphDescr, std::allocator<mglGlyphDescr> > >, mglGlyphDescr const&)
std::vector<mglGlyphDescr, std::allocator<mglGlyphDescr> >::operator=(std::vector<mglGlyphDescr, std::allocator<mglGlyphDescr> > const&)
std::vector<mglGlyphDescr, std::allocator<mglGlyphDescr> >::reserve(unsigned int)
std::vector<mglGroup, std::allocator<mglGroup> >::_M_insert_aux(__gnu_cxx::__normal_iterator<mglGroup*, std::vector<mglGroup, std::allocator<mglGroup> > >, mglGroup const&)
std::vector<mglGroup, std::allocator<mglGroup> >::~vector()
std::vector<mglMatrix, std::allocator<mglMatrix> >::_M_insert_aux(__gnu_cxx::__normal_iterator<mglMatrix*, std::vector<mglMatrix, std::allocator<mglMatrix> > >, mglMatrix const&)
std::vector<mglNum*, std::allocator<mglNum*> >::_M_insert_aux(__gnu_cxx::__normal_iterator<mglNum**, std::vector<mglNum*, std::allocator<mglNum*> > >, mglNum* const&)
std::vector<mglPoint, std::allocator<mglPoint> >::_M_insert_aux(__gnu_cxx::__normal_iterator<mglPoint*, std::vector<mglPoint, std::allocator<mglPoint> > >, mglPoint const&)
std::vector<mglPoint, std::allocator<mglPoint> >::operator=(std::vector<mglPoint, std::allocator<mglPoint> > const&)
std::vector<mglPoint, std::allocator<mglPoint> >::push_back(mglPoint const&)
std::vector<mglPoint, std::allocator<mglPoint> >::reserve(unsigned int)
std::vector<mglRKdat, std::allocator<mglRKdat> >::_M_insert_aux(__gnu_cxx::__normal_iterator<mglRKdat*, std::vector<mglRKdat, std::allocator<mglRKdat> > >, mglRKdat const&)
std::vector<mglSegment, std::allocator<mglSegment> >::_M_insert_aux(__gnu_cxx::__normal_iterator<mglSegment*, std::vector<mglSegment, std::allocator<mglSegment> > >, mglSegment const&)
std::vector<mglSegment, std::allocator<mglSegment> >::~vector()
std::vector<mglSegment, std::allocator<mglSegment> >::push_back(mglSegment const&)
std::vector<mglText, std::allocator<mglText> >::_M_fill_insert(__gnu_cxx::__normal_iterator<mglText*, std::vector<mglText, std::allocator<mglText> > >, unsigned int, mglText const&)
std::vector<mglText, std::allocator<mglText> >::_M_insert_aux(__gnu_cxx::__normal_iterator<mglText*, std::vector<mglText, std::allocator<mglText> > >, mglText const&)
std::vector<mglText, std::allocator<mglText> >::~vector()
std::vector<mglText, std::allocator<mglText> >::operator=(std::vector<mglText, std::allocator<mglText> > const&)
std::vector<mglTexture, std::allocator<mglTexture> >::_M_insert_aux(__gnu_cxx::__normal_iterator<mglTexture*, std::vector<mglTexture, std::allocator<mglTexture> > >, mglTexture const&)
std::vector<mglTexture, std::allocator<mglTexture> >::~vector()
std::vector<mglTexture, std::allocator<mglTexture> >::operator=(std::vector<mglTexture, std::allocator<mglTexture> > const&)
std::vector<mglTexture, std::allocator<mglTexture> >::reserve(unsigned int)
std::vector<PRCcompface, std::allocator<PRCcompface> >::_M_insert_aux(__gnu_cxx::__normal_iterator<PRCcompface*, std::vector<PRCcompface, std::allocator<PRCcompface> > >, PRCcompface const&)
std::vector<PRCControlPoint, std::allocator<PRCControlPoint> >::_M_fill_insert(__gnu_cxx::__normal_iterator<PRCControlPoint*, std::vector<PRCControlPoint, std::allocator<PRCControlPoint> > >, unsigned int, PRCControlPoint const&)
std::vector<PRCface, std::allocator<PRCface> >::_M_insert_aux(__gnu_cxx::__normal_iterator<PRCface*, std::vector<PRCface, std::allocator<PRCface> > >, PRCface const&)
std::vector<PRCFontKeysSameFont, std::allocator<PRCFontKeysSameFont> >::~vector()
std::vector<PRCPointSet*, std::allocator<PRCPointSet*> >::_M_insert_aux(__gnu_cxx::__normal_iterator<PRCPointSet**, std::vector<PRCPointSet*, std::allocator<PRCPointSet*> > >, PRCPointSet* const&)
std::vector<PRCPolyBrepModel*, std::allocator<PRCPolyBrepModel*> >::_M_insert_aux(__gnu_cxx::__normal_iterator<PRCPolyBrepModel**, std::vector<PRCPolyBrepModel*, std::allocator<PRCPolyBrepModel*> > >, PRCPolyBrepModel* const&)
std::vector<PRCPolyWire*, std::allocator<PRCPolyWire*> >::_M_insert_aux(__gnu_cxx::__normal_iterator<PRCPolyWire**, std::vector<PRCPolyWire*, std::allocator<PRCPolyWire*> > >, PRCPolyWire* const&)
std::vector<PRCtessquad, std::allocator<PRCtessquad> >::_M_insert_aux(__gnu_cxx::__normal_iterator<PRCtessquad*, std::vector<PRCtessquad, std::allocator<PRCtessquad> > >, PRCtessquad const&)
std::vector<PRCtessrectangle, std::allocator<PRCtessrectangle> >::_M_insert_aux(__gnu_cxx::__normal_iterator<PRCtessrectangle*, std::vector<PRCtessrectangle, std::allocator<PRCtessrectangle> > >, PRCtessrectangle const&)
std::vector<prctriangle, std::allocator<prctriangle> >::_M_insert_aux(__gnu_cxx::__normal_iterator<prctriangle*, std::vector<prctriangle, std::allocator<prctriangle> > >, prctriangle const&)
std::vector<prctriangle, std::allocator<prctriangle> >::push_back(prctriangle const&)
std::vector<PRCVector3d, std::allocator<PRCVector3d> >::_M_fill_insert(__gnu_cxx::__normal_iterator<PRCVector3d*, std::vector<PRCVector3d, std::allocator<PRCVector3d> > >, unsigned int, PRCVector3d const&)
std::vector<PRCVector3d, std::allocator<PRCVector3d> >::_M_insert_aux(__gnu_cxx::__normal_iterator<PRCVector3d*, std::vector<PRCVector3d, std::allocator<PRCVector3d> > >, PRCVector3d const&)
std::vector<PRCVector3d, std::allocator<PRCVector3d> >::operator=(std::vector<PRCVector3d, std::allocator<PRCVector3d> > const&)
std::vector<PRCVector3d, std::allocator<PRCVector3d> >::reserve(unsigned int)
std::vector<PRCwire, std::allocator<PRCwire> >::_M_insert_aux(__gnu_cxx::__normal_iterator<PRCwire*, std::vector<PRCwire, std::allocator<PRCwire> > >, PRCwire const&)
std::vector<short, std::allocator<short> >::_M_insert_aux(__gnu_cxx::__normal_iterator<short*, std::vector<short, std::allocator<short> > >, short const&)
std::vector<Shx, std::allocator<Shx> >::_M_insert_aux(__gnu_cxx::__normal_iterator<Shx*, std::vector<Shx, std::allocator<Shx> > >, Shx const&)
std::vector<Shx, std::allocator<Shx> >::erase(__gnu_cxx::__normal_iterator<Shx*, std::vector<Shx, std::allocator<Shx> > >)
std::vector<Shx, std::allocator<Shx> >::insert(__gnu_cxx::__normal_iterator<Shx*, std::vector<Shx, std::allocator<Shx> > >, Shx const&)
std::vector<std::basic_string<char, std::char_traits<char>, std::allocator<char> >, std::allocator<std::basic_string<char, std::char_traits<char>, std::allocator<char> > > >::_M_insert_aux(__gnu_cxx::__normal_iterator<std::basic_string<char, std::char_traits<char>, std::allocator<char> >*, std::vector<std::basic_string<char, std::char_traits<char>, std::allocator<char> >, std::allocator<std::basic_string<char, std::char_traits<char>, std::allocator<char> > > > >, std::basic_string<char, std::char_traits<char>, std::allocator<char> > const&)
std::vector<std::basic_string<char, std::char_traits<char>, std::allocator<char> >, std::allocator<std::basic_string<char, std::char_traits<char>, std::allocator<char> > > >::~vector()
std::vector<std::basic_string<wchar_t, std::char_traits<wchar_t>, std::allocator<wchar_t> >, std::allocator<std::basic_string<wchar_t, std::char_traits<wchar_t>, std::allocator<wchar_t> > > >::_M_insert_aux(__gnu_cxx::__normal_iterator<std::basic_string<wchar_t, std::char_traits<wchar_t>, std::allocator<wchar_t> >*, std::vector<std::basic_string<wchar_t, std::char_traits<wchar_t>, std::allocator<wchar_t> >, std::allocator<std::basic_string<wchar_t, std::char_traits<wchar_t>, std::allocator<wchar_t> > > > >, std::basic_string<wchar_t, std::char_traits<wchar_t>, std::allocator<wchar_t> > const&)
std::vector<std::complex<double>, std::allocator<std::complex<double> > >::_M_insert_aux(__gnu_cxx::__normal_iterator<std::complex<double>*, std::vector<std::complex<double>, std::allocator<std::complex<double> > > >, std::complex<double> const&)
std::vector<std::complex<double>, std::allocator<std::complex<double> > >::operator=(std::vector<std::complex<double>, std::allocator<std::complex<double> > > const&)
std::vector<std::vector<double, std::allocator<double> >, std::allocator<std::vector<double, std::allocator<double> > > >::_M_fill_insert(__gnu_cxx::__normal_iterator<std::vector<double, std::allocator<double> >*, std::vector<std::vector<double, std::allocator<double> >, std::allocator<std::vector<double, std::allocator<double> > > > >, unsigned int, std::vector<double, std::allocator<double> > const&)
std::vector<std::vector<std::complex<double>, std::allocator<std::complex<double> > >, std::allocator<std::vector<std::complex<double>, std::allocator<std::complex<double> > > > >::_M_fill_insert(__gnu_cxx::__normal_iterator<std::vector<std::complex<double>, std::allocator<std::complex<double> > >*, std::vector<std::vector<std::complex<double>, std::allocator<std::complex<double> > >, std::allocator<std::vector<std::complex<double>, std::allocator<std::complex<double> > > > > >, unsigned int, std::vector<std::complex<double>, std::allocator<std::complex<double> > > const&)
std::vector<Triad, std::allocator<Triad> >::_M_insert_aux(__gnu_cxx::__normal_iterator<Triad*, std::vector<Triad, std::allocator<Triad> > >, Triad const&)
std::vector<unsigned char, std::allocator<unsigned char> >::_M_insert_aux(__gnu_cxx::__normal_iterator<unsigned char*, std::vector<unsigned char, std::allocator<unsigned char> > >, unsigned char const&)
std::vector<unsigned char, std::allocator<unsigned char> >::push_back(unsigned char const&)
std::vector<unsigned char, std::allocator<unsigned char> >::reserve(unsigned int)
std::vector<unsigned int, std::allocator<unsigned int> >::_M_insert_aux(__gnu_cxx::__normal_iterator<unsigned int*, std::vector<unsigned int, std::allocator<unsigned int> > >, unsigned int const&)
std::vector<unsigned int, std::allocator<unsigned int> >::push_back(unsigned int const&)
std::vector<unsigned int, std::allocator<unsigned int> >::reserve(unsigned int)
std::vector<wchar_t, std::allocator<wchar_t> >::_M_insert_aux(__gnu_cxx::__normal_iterator<wchar_t*, std::vector<wchar_t, std::allocator<wchar_t> > >, wchar_t const&)
stop_xpm
stp(double)
sub(double, double)
subc(std::complex<double>, std::complex<double>)
T_flip_edge(std::vector<Shx, std::allocator<Shx> >&, std::vector<Triad, std::allocator<Triad> >&, std::vector<long, std::allocator<long> >&, long, long, std::set<long, std::less<long>, std::allocator<long> >&)
T_flip_pro(std::vector<Shx, std::allocator<Shx> >&, std::vector<Triad, std::allocator<Triad> >&, std::vector<long, std::allocator<long> >&, long, long, std::set<long, std::less<long>, std::allocator<long> >&)
T_flip_pro_idx(std::vector<Shx, std::allocator<Shx> >&, std::vector<Triad, std::allocator<Triad> >&, std::vector<long, std::allocator<long> >&, std::set<long, std::less<long>, std::allocator<long> >&)
tan_d(double)
tanc(std::complex<double>)
tanh_d(double)
tanhc(std::complex<double>)
test_center(Shx&, Shx&, Shx&)
text_xpm
type_eligible_for_reference(unsigned int)
typeinfo for ContentPRCBase
typeinfo for Fl_Group
typeinfo for Fl_MathGL
typeinfo for Fl_MGLView
typeinfo for Fl_Widget
typeinfo for Fl_Window
typeinfo for mglBase
typeinfo for mglCanvas
typeinfo for mglCanvasFL
typeinfo for mglCanvasGL
typeinfo for mglCanvasQT
typeinfo for mglCanvasWnd
typeinfo for mglData
typeinfo for mglDataA
typeinfo for mglDataC
typeinfo for mglDataR
typeinfo for mglDataT
typeinfo for mglDataV
typeinfo for mglDataW
typeinfo for mglFont
typeinfo for mglFormulaC
typeinfo for mglGraph
typeinfo for mglParse
typeinfo for mglParser
typeinfo for PRC3DTess
typeinfo for PRC3DWireTess
typeinfo for PRCAttributes
typeinfo for PRCBaseGeometry
typeinfo for PRCBaseTopology
typeinfo for PRCBlend01
typeinfo for PRCBody
typeinfo for PRCBoundingBox
typeinfo for PRCBrepData
typeinfo for PRCBrepModel
typeinfo for PRCCartesianTransformation3d
typeinfo for PRCCircle
typeinfo for PRCCompressedBrepData
typeinfo for PRCCone
typeinfo for PRCConnex
typeinfo for PRCContentBaseTessData
typeinfo for PRCContentBody
typeinfo for PRCContentCurve
typeinfo for PRCContentSurface
typeinfo for PRCContentWireEdge
typeinfo for PRCCoordinateSystem
typeinfo for PRCCurve
typeinfo for PRCCylinder
typeinfo for PRCFace
typeinfo for PRCGeneralTransformation3d
typeinfo for PRCGraphics
typeinfo for PRCMaterial
typeinfo for PRCMaterialGeneric
typeinfo for PRCNURBSCurve
typeinfo for PRCNURBSSurface
typeinfo for PRCParameterization
typeinfo for PRCPointSet
typeinfo for PRCPolyBrepModel
typeinfo for PRCPolyLine
typeinfo for PRCPolyWire
typeinfo for PRCRepresentationItem
typeinfo for PRCRepresentationItemContent
typeinfo for PRCRuled
typeinfo for PRCSet
typeinfo for PRCShell
typeinfo for PRCSingleWireBody
typeinfo for PRCSphere
typeinfo for PRCSurface
typeinfo for PRCTess
typeinfo for PRCTextureApplication
typeinfo for PRCTopoItem
typeinfo for PRCTorus
typeinfo for PRCTransformation
typeinfo for PRCTransformation3d
typeinfo for PRCUVParameterization
typeinfo for PRCWire
typeinfo for PRCWireEdge
typeinfo for QMathGL
typeinfo for QObject
typeinfo for QPaintDevice
typeinfo for QWidget
typeinfo name for ContentPRCBase
typeinfo name for Fl_Group
typeinfo name for Fl_MathGL
typeinfo name for Fl_MGLView
typeinfo name for Fl_Widget
typeinfo name for Fl_Window
typeinfo name for mglBase
typeinfo name for mglCanvas
typeinfo name for mglCanvasFL
typeinfo name for mglCanvasGL
typeinfo name for mglCanvasQT
typeinfo name for mglCanvasWnd
typeinfo name for mglData
typeinfo name for mglDataA
typeinfo name for mglDataC
typeinfo name for mglDataR
typeinfo name for mglDataT
typeinfo name for mglDataV
typeinfo name for mglDataW
typeinfo name for mglFont
typeinfo name for mglFormulaC
typeinfo name for mglGraph
typeinfo name for mglParse
typeinfo name for mglParser
typeinfo name for PRC3DTess
typeinfo name for PRC3DWireTess
typeinfo name for PRCAttributes
typeinfo name for PRCBaseGeometry
typeinfo name for PRCBaseTopology
typeinfo name for PRCBlend01
typeinfo name for PRCBody
typeinfo name for PRCBoundingBox
typeinfo name for PRCBrepData
typeinfo name for PRCBrepModel
typeinfo name for PRCCartesianTransformation3d
typeinfo name for PRCCircle
typeinfo name for PRCCompressedBrepData
typeinfo name for PRCCone
typeinfo name for PRCConnex
typeinfo name for PRCContentBaseTessData
typeinfo name for PRCContentBody
typeinfo name for PRCContentCurve
typeinfo name for PRCContentSurface
typeinfo name for PRCContentWireEdge
typeinfo name for PRCCoordinateSystem
typeinfo name for PRCCurve
typeinfo name for PRCCylinder
typeinfo name for PRCFace
typeinfo name for PRCGeneralTransformation3d
typeinfo name for PRCGraphics
typeinfo name for PRCMaterial
typeinfo name for PRCMaterialGeneric
typeinfo name for PRCNURBSCurve
typeinfo name for PRCNURBSSurface
typeinfo name for PRCParameterization
typeinfo name for PRCPointSet
typeinfo name for PRCPolyBrepModel
typeinfo name for PRCPolyLine
typeinfo name for PRCPolyWire
typeinfo name for PRCRepresentationItem
typeinfo name for PRCRepresentationItemContent
typeinfo name for PRCRuled
typeinfo name for PRCSet
typeinfo name for PRCShell
typeinfo name for PRCSingleWireBody
typeinfo name for PRCSphere
typeinfo name for PRCSurface
typeinfo name for PRCTess
typeinfo name for PRCTextureApplication
typeinfo name for PRCTopoItem
typeinfo name for PRCTorus
typeinfo name for PRCTransformation
typeinfo name for PRCTransformation3d
typeinfo name for PRCUVParameterization
typeinfo name for PRCWire
typeinfo name for PRCWireEdge
typeinfo name for QMathGL
typeinfo name for QObject
typeinfo name for QPaintDevice
typeinfo name for QWidget
up_1_xpm
UserData::write(PRCbitStream&)
void mgl_gspline_init<double>(long, double const*, double const*, double*)
void mgl_gspline_init<std::complex<double> >(long, double const*, std::complex<double> const*, std::complex<double>*)
void std::__adjust_heap<__gnu_cxx::__normal_iterator<Dupex*, std::vector<Dupex, std::allocator<Dupex> > >, int, Dupex>(__gnu_cxx::__normal_iterator<Dupex*, std::vector<Dupex, std::allocator<Dupex> > >, int, int, Dupex)
void std::__adjust_heap<__gnu_cxx::__normal_iterator<long*, std::vector<long, std::allocator<long> > >, int, long>(__gnu_cxx::__normal_iterator<long*, std::vector<long, std::allocator<long> > >, int, int, long)
void std::__adjust_heap<__gnu_cxx::__normal_iterator<mglGlyphDescr*, std::vector<mglGlyphDescr, std::allocator<mglGlyphDescr> > >, int, mglGlyphDescr>(__gnu_cxx::__normal_iterator<mglGlyphDescr*, std::vector<mglGlyphDescr, std::allocator<mglGlyphDescr> > >, int, int, mglGlyphDescr)
void std::__adjust_heap<__gnu_cxx::__normal_iterator<Shx*, std::vector<Shx, std::allocator<Shx> > >, int, Shx>(__gnu_cxx::__normal_iterator<Shx*, std::vector<Shx, std::allocator<Shx> > >, int, int, Shx)
void std::__heap_select<__gnu_cxx::__normal_iterator<Dupex*, std::vector<Dupex, std::allocator<Dupex> > > >(__gnu_cxx::__normal_iterator<Dupex*, std::vector<Dupex, std::allocator<Dupex> > >, __gnu_cxx::__normal_iterator<Dupex*, std::vector<Dupex, std::allocator<Dupex> > >, __gnu_cxx::__normal_iterator<Dupex*, std::vector<Dupex, std::allocator<Dupex> > >)
void std::__heap_select<__gnu_cxx::__normal_iterator<mglGlyphDescr*, std::vector<mglGlyphDescr, std::allocator<mglGlyphDescr> > > >(__gnu_cxx::__normal_iterator<mglGlyphDescr*, std::vector<mglGlyphDescr, std::allocator<mglGlyphDescr> > >, __gnu_cxx::__normal_iterator<mglGlyphDescr*, std::vector<mglGlyphDescr, std::allocator<mglGlyphDescr> > >, __gnu_cxx::__normal_iterator<mglGlyphDescr*, std::vector<mglGlyphDescr, std::allocator<mglGlyphDescr> > >)
void std::__insertion_sort<__gnu_cxx::__normal_iterator<Dupex*, std::vector<Dupex, std::allocator<Dupex> > > >(__gnu_cxx::__normal_iterator<Dupex*, std::vector<Dupex, std::allocator<Dupex> > >, __gnu_cxx::__normal_iterator<Dupex*, std::vector<Dupex, std::allocator<Dupex> > >)
void std::__insertion_sort<__gnu_cxx::__normal_iterator<long*, std::vector<long, std::allocator<long> > > >(__gnu_cxx::__normal_iterator<long*, std::vector<long, std::allocator<long> > >, __gnu_cxx::__normal_iterator<long*, std::vector<long, std::allocator<long> > >)
void std::__insertion_sort<__gnu_cxx::__normal_iterator<mglGlyphDescr*, std::vector<mglGlyphDescr, std::allocator<mglGlyphDescr> > > >(__gnu_cxx::__normal_iterator<mglGlyphDescr*, std::vector<mglGlyphDescr, std::allocator<mglGlyphDescr> > >, __gnu_cxx::__normal_iterator<mglGlyphDescr*, std::vector<mglGlyphDescr, std::allocator<mglGlyphDescr> > >)
void std::__insertion_sort<__gnu_cxx::__normal_iterator<Shx*, std::vector<Shx, std::allocator<Shx> > > >(__gnu_cxx::__normal_iterator<Shx*, std::vector<Shx, std::allocator<Shx> > >, __gnu_cxx::__normal_iterator<Shx*, std::vector<Shx, std::allocator<Shx> > >)
void std::__introsort_loop<__gnu_cxx::__normal_iterator<Dupex*, std::vector<Dupex, std::allocator<Dupex> > >, int>(__gnu_cxx::__normal_iterator<Dupex*, std::vector<Dupex, std::allocator<Dupex> > >, __gnu_cxx::__normal_iterator<Dupex*, std::vector<Dupex, std::allocator<Dupex> > >, int)
void std::__introsort_loop<__gnu_cxx::__normal_iterator<long*, std::vector<long, std::allocator<long> > >, int>(__gnu_cxx::__normal_iterator<long*, std::vector<long, std::allocator<long> > >, __gnu_cxx::__normal_iterator<long*, std::vector<long, std::allocator<long> > >, int)
void std::__introsort_loop<__gnu_cxx::__normal_iterator<mglGlyphDescr*, std::vector<mglGlyphDescr, std::allocator<mglGlyphDescr> > >, int>(__gnu_cxx::__normal_iterator<mglGlyphDescr*, std::vector<mglGlyphDescr, std::allocator<mglGlyphDescr> > >, __gnu_cxx::__normal_iterator<mglGlyphDescr*, std::vector<mglGlyphDescr, std::allocator<mglGlyphDescr> > >, int)
void std::__introsort_loop<__gnu_cxx::__normal_iterator<Shx*, std::vector<Shx, std::allocator<Shx> > >, int>(__gnu_cxx::__normal_iterator<Shx*, std::vector<Shx, std::allocator<Shx> > >, __gnu_cxx::__normal_iterator<Shx*, std::vector<Shx, std::allocator<Shx> > >, int)
void std::__move_median_first<__gnu_cxx::__normal_iterator<Dupex*, std::vector<Dupex, std::allocator<Dupex> > > >(__gnu_cxx::__normal_iterator<Dupex*, std::vector<Dupex, std::allocator<Dupex> > >, __gnu_cxx::__normal_iterator<Dupex*, std::vector<Dupex, std::allocator<Dupex> > >, __gnu_cxx::__normal_iterator<Dupex*, std::vector<Dupex, std::allocator<Dupex> > >)
void std::__push_heap<__gnu_cxx::__normal_iterator<Shx*, std::vector<Shx, std::allocator<Shx> > >, int, Shx>(__gnu_cxx::__normal_iterator<Shx*, std::vector<Shx, std::allocator<Shx> > >, int, int, Shx)
void std::__unguarded_linear_insert<__gnu_cxx::__normal_iterator<Dupex*, std::vector<Dupex, std::allocator<Dupex> > > >(__gnu_cxx::__normal_iterator<Dupex*, std::vector<Dupex, std::allocator<Dupex> > >)
void std::__unguarded_linear_insert<__gnu_cxx::__normal_iterator<mglGlyphDescr*, std::vector<mglGlyphDescr, std::allocator<mglGlyphDescr> > > >(__gnu_cxx::__normal_iterator<mglGlyphDescr*, std::vector<mglGlyphDescr, std::allocator<mglGlyphDescr> > >)
void std::__unguarded_linear_insert<__gnu_cxx::__normal_iterator<Shx*, std::vector<Shx, std::allocator<Shx> > > >(__gnu_cxx::__normal_iterator<Shx*, std::vector<Shx, std::allocator<Shx> > >)
void std::__uninitialized_fill_n<false>::__uninit_fill_n<mglGlyph*, unsigned int, mglGlyph>(mglGlyph*, unsigned int, mglGlyph const&)
void std::__uninitialized_fill_n<false>::__uninit_fill_n<mglText*, unsigned int, mglText>(mglText*, unsigned int, mglText const&)
void std::_Destroy_aux<false>::__destroy<mglSegment*>(mglSegment*, mglSegment*)
void std::_Destroy_aux<false>::__destroy<mglTexture*>(mglTexture*, mglTexture*)
void std::_Destroy<std::_Deque_iterator<PRCgroup, PRCgroup&, PRCgroup*> >(std::_Deque_iterator<PRCgroup, PRCgroup&, PRCgroup*>, std::_Deque_iterator<PRCgroup, PRCgroup&, PRCgroup*>)
void std::_Destroy<std::_Deque_iterator<PRCSingleAttribute, PRCSingleAttribute&, PRCSingleAttribute*> >(std::_Deque_iterator<PRCSingleAttribute, PRCSingleAttribute&, PRCSingleAttribute*>, std::_Deque_iterator<PRCSingleAttribute, PRCSingleAttribute&, PRCSingleAttribute*>)
void std::make_heap<__gnu_cxx::__normal_iterator<Shx*, std::vector<Shx, std::allocator<Shx> > > >(__gnu_cxx::__normal_iterator<Shx*, std::vector<Shx, std::allocator<Shx> > >, __gnu_cxx::__normal_iterator<Shx*, std::vector<Shx, std::allocator<Shx> > >)
void std::vector<double, std::allocator<double> >::_M_range_insert<double const*>(__gnu_cxx::__normal_iterator<double*, std::vector<double, std::allocator<double> > >, double const*, double const*, std::forward_iterator_tag)
void std::vector<mglGlyphDescr, std::allocator<mglGlyphDescr> >::_M_range_insert<__gnu_cxx::__normal_iterator<mglGlyphDescr*, std::vector<mglGlyphDescr, std::allocator<mglGlyphDescr> > > >(__gnu_cxx::__normal_iterator<mglGlyphDescr*, std::vector<mglGlyphDescr, std::allocator<mglGlyphDescr> > >, __gnu_cxx::__normal_iterator<mglGlyphDescr*, std::vector<mglGlyphDescr, std::allocator<mglGlyphDescr> > >, __gnu_cxx::__normal_iterator<mglGlyphDescr*, std::vector<mglGlyphDescr, std::allocator<mglGlyphDescr> > >, std::forward_iterator_tag)
vtable for __cxxabiv1::__class_type_info
vtable for __cxxabiv1::__si_class_type_info
vtable for __cxxabiv1::__vmi_class_type_info
vtable for Fl_MathGL
vtable for Fl_MGLView
vtable for Fl_Pixmap
vtable for mglBase
vtable for mglCanvas
vtable for mglCanvasFL
vtable for mglCanvasGL
vtable for mglCanvasQT
vtable for mglCanvasWnd
vtable for mglData
vtable for mglDataA
vtable for mglDataC
vtable for mglDataR
vtable for mglDataT
vtable for mglDataV
vtable for mglDataW
vtable for mglFont
vtable for mglFormulaC
vtable for mglGraph
vtable for mglParse
vtable for mglParser
vtable for PRC3DTess
vtable for PRC3DWireTess
vtable for PRCBlend01
vtable for PRCBody
vtable for PRCBrepData
vtable for PRCBrepModel
vtable for PRCCartesianTransformation3d
vtable for PRCCircle
vtable for PRCCompressedBrepData
vtable for PRCCone
vtable for PRCConnex
vtable for PRCCoordinateSystem
vtable for PRCCurve
vtable for PRCCylinder
vtable for PRCFace
vtable for PRCGeneralTransformation3d
vtable for PRCMaterial
vtable for PRCMaterialGeneric
vtable for PRCNURBSCurve
vtable for PRCNURBSSurface
vtable for PRCPointSet
vtable for PRCPolyBrepModel
vtable for PRCPolyLine
vtable for PRCPolyWire
vtable for PRCRepresentationItem
vtable for PRCRuled
vtable for PRCSet
vtable for PRCShell
vtable for PRCSingleWireBody
vtable for PRCSphere
vtable for PRCSurface
vtable for PRCTess
vtable for PRCTextureApplication
vtable for PRCTopoItem
vtable for PRCTorus
vtable for PRCTransformation3d
vtable for PRCWire
vtable for PRCWireEdge
vtable for QMathGL
vtable for std::basic_filebuf<char, std::char_traits<char> >
vtable for std::basic_ifstream<char, std::char_traits<char> >
vtable for std::basic_ios<char, std::char_traits<char> >
vtable for std::basic_ofstream<char, std::char_traits<char> >
vtable for std::basic_streambuf<char, std::char_traits<char> >
vtable for std::basic_stringbuf<char, std::char_traits<char>, std::allocator<char> >
vtable for std::basic_stringstream<char, std::char_traits<char>, std::allocator<char> >
VTT for std::basic_ifstream<char, std::char_traits<char> >
VTT for std::basic_ofstream<char, std::char_traits<char> >
VTT for std::basic_stringstream<char, std::char_traits<char>, std::allocator<char> >
WC
wire_xpm
write_Shx(std::vector<Shx, std::allocator<Shx> >&, char*)
write_Triads(std::vector<Triad, std::allocator<Triad> >&, char*)
writeDoubleWithVariableBitNumber(PRCbitStream&, double, double, unsigned int)
writeEmptyMarkups(PRCbitStream&)
writeGraphics(PRCbitStream&, PRCGraphics const&, bool)
writeGraphics(PRCbitStream&, unsigned int, unsigned int, unsigned short, bool)
writeIntegerWithVariableBitNumber(PRCbitStream&, int, unsigned int)
writeName(PRCbitStream&, std::basic_string<char, std::char_traits<char>, std::allocator<char> > const&)
writeNumberOfBitsThenUnsignedInteger(PRCbitStream&, unsigned int)
writeUncompressedUnsignedInteger(std::basic_ostream<char, std::char_traits<char> >&, unsigned int)
writeUnit(PRCbitStream&, bool, double)
writeUnsignedIntegerWithVariableBitNumber(PRCbitStream&, unsigned int, unsigned int)
z2
zoom_1_xpm
zoom_in_xpm
zoom_out_xpm
